(lp0
S'jbr0'
p1
aS'jcd48'
p2
aS'jbu37'
p3
aS'jcd48'
p4
aS'jcu34'
p5
aS'jcr88'
p6
aS'jcl85'
p7
aS'jbr43'
p8
aS'right'
p9
aS'jcr20'
p10
aS'right'
p11
aS'jbd95'
p12
aS'jcu50'
p13
aS'jbr69'
p14
aS'up'
p15
aS'jbd42'
p16
aS'down'
p17
aS'jbd84'
p18
aS'jbd99'
p19
aS'jbl16'
p20
ag9
aS'right'
p21
aS'down'
p22
aS'jbl13'
p23
aS'right'
p24
aS'jcl6'
p25
aS'jbu95'
p26
aS'jbu27'
p27
aS'jbl54'
p28
aS'jcl79'
p29
aS'right'
p30
aS'jcl44'
p31
aS'jcd7'
p32
aS'jcd4'
p33
aS'jbl87'
p34
aS'jbd84'
p35
aS'jbl75'
p36
aS'left'
p37
aS'down'
p38
aS'up'
p39
aS'jbr62'
p40
aS'jbr39'
p41
aS'jbl35'
p42
ag9
aS'jcu71'
p43
aS'left'
p44
aS'jcl98'
p45
aS'jcl54'
p46
aS'jcr40'
p47
ag21
aS'down'
p48
aS'jbl25'
p49
ag9
aS'jcu91'
p50
aS'up'
p51
ag37
aS'up'
p52
ag17
aS'down'
p53
aS'left'
p54
aS'down'
p55
ag53
aS'jbr64'
p56
aS'right'
p57
aS'jcu32'
p58
aS'jcr92'
p59
ag54
aS'jbr27'
p60
aS'jbd82'
p61
aS'jbl99'
p62
aS'jbd47'
p63
ag15
aS'right'
p64
aS'up'
p65
aS'jcr87'
p66
ag51
aS'jcd57'
p67
aS'jcd19'
p68
aS'jbl96'
p69
aS'jbr93'
p70
ag17
aS'jbr49'
p71
aS'jcd87'
p72
ag53
aS'jcd7'
p73
aS'jbu57'
p74
ag17
aS'left'
p75
ag54
aS'jcd47'
p76
aS'jcu17'
p77
aS'jcl83'
p78
aS'jcl54'
p79
aS'jcu94'
p80
aS'jbr50'
p81
aS'down'
p82
aS'jcl42'
p83
aS'jbl13'
p84
ag48
aS'down'
p85
a.