(lp0
S'jbl75'
p1
aS'jcd48'
p2
aS'jbu37'
p3
aS'jcd48'
p4
aS'jcu34'
p5
aS'jcr88'
p6
aS'jcl85'
p7
aS'jbr43'
p8
aS'right'
p9
aS'jbl35'
p10
aS'jbu55'
p11
aS'jcu71'
p12
aS'down'
p13
aS'jcl98'
p14
aS'jcl54'
p15
aS'jcr40'
p16
aS'right'
p17
aS'jbl39'
p18
aS'jbl25'
p19
aS'right'
p20
aS'jcu91'
p21
aS'up'
p22
aS'left'
p23
aS'up'
p24
aS'down'
p25
aS'down'
p26
aS'left'
p27
aS'down'
p28
ag26
aS'jbl94'
p29
aS'right'
p30
aS'jcu32'
p31
aS'jcr92'
p32
ag27
aS'jbr27'
p33
aS'jbd82'
p34
aS'jbl99'
p35
aS'jbd47'
p36
aS'up'
p37
ag13
aS'up'
p38
aS'jcr87'
p39
ag22
aS'jcd57'
p40
aS'jcr25'
p41
aS'jbl96'
p42
aS'jbr93'
p43
ag25
aS'jbr49'
p44
aS'jcd87'
p45
ag26
aS'jcd7'
p46
aS'jbr86'
p47
ag25
aS'left'
p48
ag27
aS'jcd47'
p49
aS'jcu17'
p50
aS'jcl83'
p51
aS'jcl54'
p52
aS'down'
p53
aS'down'
p54
aS'jbr64'
p55
aS'right'
p56
aS'jcu32'
p57
aS'jcr92'
p58
aS'left'
p59
aS'jbr27'
p60
aS'jbd82'
p61
aS'jbl99'
p62
aS'jbd47'
p63
aS'right'
p64
aS'right'
p65
aS'up'
p66
aS'jcr87'
p67
aS'up'
p68
aS'jcd57'
p69
aS'jcd19'
p70
aS'jbl96'
p71
aS'jbr93'
p72
aS'down'
p73
aS'jbr49'
p74
aS'jcd87'
p75
ag54
aS'jcu76'
p76
aS'jbu57'
p77
ag73
aS'left'
p78
ag59
aS'up'
p79
aS'jcu17'
p80
aS'jcl83'
p81
aS'jcl54'
p82
aS'jcu94'
p83
aS'jbr50'
p84
aS'down'
p85
aS'jcl42'
p86
aS'jbl13'
p87
aS'down'
p88
aS'down'
p89
a.