(lp0
S'jcr10'
p1
aS'jcd48'
p2
aS'jbu37'
p3
aS'jcd48'
p4
aS'jcu34'
p5
aS'jcr88'
p6
aS'jcl85'
p7
aS'jbr43'
p8
aS'right'
p9
aS'down'
p10
aS'right'
p11
aS'jbd95'
p12
aS'jcu50'
p13
aS'jbr69'
p14
aS'up'
p15
aS'jbd42'
p16
aS'down'
p17
aS'jbu48'
p18
aS'jbd99'
p19
aS'jbl16'
p20
ag9
aS'right'
p21
aS'down'
p22
aS'jbl13'
p23
aS'right'
p24
aS'jcl6'
p25
aS'jbu95'
p26
aS'jbu27'
p27
aS'jbl54'
p28
aS'jcl79'
p29
aS'right'
p30
aS'jcd27'
p31
aS'jcd7'
p32
aS'jcd4'
p33
aS'jbl87'
p34
aS'jbd84'
p35
aS'jbl75'
p36
aS'left'
p37
aS'down'
p38
aS'up'
p39
aS'jbr62'
p40
aS'jbr39'
p41
aS'jbl35'
p42
ag9
aS'jcu71'
p43
aS'left'
p44
aS'jcl98'
p45
aS'jcl54'
p46
aS'jcr40'
p47
aS'jcl27'
p48
aS'down'
p49
aS'jcr32'
p50
ag9
aS'jcu91'
p51
aS'jcr7'
p52
ag37
aS'up'
p53
ag17
aS'down'
p54
aS'left'
p55
aS'down'
p56
ag54
aS'jbr64'
p57
aS'right'
p58
aS'jcu32'
p59
aS'jcr92'
p60
ag55
aS'jbr27'
p61
aS'jbd82'
p62
aS'jbl99'
p63
aS'jbd47'
p64
ag15
aS'right'
p65
aS'up'
p66
aS'jcr87'
p67
aS'up'
p68
aS'jcd57'
p69
aS'jcd19'
p70
aS'jcl89'
p71
aS'jbr93'
p72
ag17
aS'jbr49'
p73
aS'jcd87'
p74
ag54
aS'jcd7'
p75
aS'jbu57'
p76
ag17
aS'left'
p77
ag55
aS'jcd47'
p78
aS'jcu17'
p79
aS'jcl83'
p80
aS'jbr6'
p81
aS'jcu94'
p82
aS'jbr50'
p83
aS'down'
p84
aS'jcl42'
p85
aS'jbl13'
p86
ag49
aS'down'
p87
a.