(lp0
S'jbr0'
p1
aS'jcd48'
p2
aS'jbu37'
p3
aS'jcd48'
p4
aS'jcu2'
p5
aS'jcr88'
p6
aS'jcl85'
p7
aS'jbr43'
p8
aS'right'
p9
aS'right'
p10
aS'right'
p11
aS'jcl20'
p12
aS'jcu50'
p13
aS'jbr69'
p14
aS'up'
p15
aS'jbd42'
p16
aS'down'
p17
aS'jbd84'
p18
aS'jbd99'
p19
aS'jbl16'
p20
ag9
aS'right'
p21
aS'down'
p22
aS'jbu2'
p23
aS'right'
p24
aS'jcl6'
p25
ag10
aS'jbu27'
p26
aS'jbl54'
p27
aS'jcl79'
p28
aS'right'
p29
aS'jcl44'
p30
aS'jcd7'
p31
aS'jcd4'
p32
aS'jbl87'
p33
aS'jbd84'
p34
aS'jbl75'
p35
aS'left'
p36
aS'down'
p37
aS'up'
p38
aS'jbr62'
p39
aS'jbr39'
p40
aS'jbl35'
p41
ag9
aS'jcu71'
p42
aS'left'
p43
aS'jcl98'
p44
aS'jcl54'
p45
aS'jcr40'
p46
ag21
aS'down'
p47
aS'jbl25'
p48
aS'jcl12'
p49
aS'jcu91'
p50
aS'up'
p51
aS'left'
p52
aS'up'
p53
ag17
aS'down'
p54
aS'left'
p55
aS'down'
p56
ag54
aS'jbr64'
p57
aS'right'
p58
aS'jcu32'
p59
aS'jcr92'
p60
ag55
aS'jbr27'
p61
aS'jbd82'
p62
aS'jbl99'
p63
aS'jcr73'
p64
ag52
aS'right'
p65
aS'up'
p66
aS'jcr87'
p67
ag51
aS'jbr12'
p68
aS'jcd19'
p69
aS'jbl96'
p70
aS'jbr93'
p71
ag17
aS'jcu5'
p72
aS'jcd87'
p73
ag54
ag52
aS'jbu57'
p74
ag17
aS'left'
p75
ag55
aS'jcd47'
p76
aS'jcu17'
p77
aS'jcl83'
p78
aS'jcl54'
p79
aS'jcu94'
p80
ag10
aS'down'
p81
aS'jcl42'
p82
aS'jbl13'
p83
ag47
aS'down'
p84
a.