(lp0
S'jbr0'
p1
aS'jcd48'
p2
aS'jbu37'
p3
aS'jcd48'
p4
aS'jcu34'
p5
aS'jcr88'
p6
aS'jbd9'
p7
aS'jbr43'
p8
aS'right'
p9
aS'jcr20'
p10
aS'right'
p11
aS'jcd28'
p12
aS'jcu50'
p13
aS'jbr69'
p14
aS'up'
p15
aS'jbd42'
p16
aS'down'
p17
aS'jcr43'
p18
aS'jbd99'
p19
aS'jbl16'
p20
ag9
aS'right'
p21
aS'down'
p22
aS'up'
p23
aS'right'
p24
aS'jcl6'
p25
aS'jbu95'
p26
aS'jbu27'
p27
aS'jbl54'
p28
aS'jcl79'
p29
aS'jbr19'
p30
aS'jcl44'
p31
aS'jcd7'
p32
aS'jcd4'
p33
aS'jbl87'
p34
aS'jbd84'
p35
aS'jcr76'
p36
aS'left'
p37
aS'jcl74'
p38
aS'up'
p39
aS'jbr62'
p40
aS'jbr39'
p41
aS'jbl35'
p42
ag9
aS'jcu71'
p43
aS'left'
p44
aS'jcl98'
p45
aS'jcl54'
p46
aS'jcr40'
p47
ag21
aS'down'
p48
ag23
ag9
aS'jcu91'
p49
aS'up'
p50
ag37
aS'up'
p51
ag17
aS'down'
p52
ag23
aS'jbu63'
p53
ag52
aS'jbr64'
p54
aS'right'
p55
aS'jcu32'
p56
aS'jcr92'
p57
aS'left'
p58
aS'jbr27'
p59
aS'jbd82'
p60
aS'jbl99'
p61
aS'jbd47'
p62
ag15
aS'right'
p63
aS'up'
p64
aS'jbd64'
p65
ag50
aS'left'
p66
aS'jcd19'
p67
aS'jbl96'
p68
aS'jbr93'
p69
ag17
aS'jbr49'
p70
aS'jcd87'
p71
ag52
aS'jcd7'
p72
aS'jbu57'
p73
ag17
aS'left'
p74
ag58
aS'jcr63'
p75
aS'jcu17'
p76
aS'jcl83'
p77
aS'jcl54'
p78
aS'jcu94'
p79
aS'jbr50'
p80
aS'down'
p81
aS'jcu8'
p82
aS'jbl13'
p83
ag48
aS'down'
p84
a.