(lp0
S'jcu6'
p1
aS'jcd48'
p2
aS'jbu37'
p3
aS'jcd48'
p4
aS'jbr69'
p5
aS'jcu22'
p6
aS'jbd42'
p7
aS'down'
p8
aS'jbd84'
p9
aS'up'
p10
aS'jbl16'
p11
aS'down'
p12
aS'right'
p13
aS'down'
p14
aS'jbl13'
p15
aS'right'
p16
aS'jcu62'
p17
aS'jbu95'
p18
aS'jbu27'
p19
aS'jbl54'
p20
aS'jcl79'
p21
aS'right'
p22
aS'jcl44'
p23
aS'jcd7'
p24
aS'jcd4'
p25
aS'jbl87'
p26
aS'jbd84'
p27
aS'jbd37'
p28
aS'left'
p29
aS'down'
p30
aS'up'
p31
aS'jbr62'
p32
aS'jbr39'
p33
aS'jbl35'
p34
aS'right'
p35
aS'left'
p36
aS'left'
p37
aS'jcl98'
p38
ag10
aS'jcr40'
p39
ag13
aS'right'
p40
aS'jbl25'
p41
ag35
aS'jcu91'
p42
aS'up'
p43
ag36
aS'up'
p44
ag8
aS'down'
p45
aS'jcd66'
p46
aS'down'
p47
ag45
aS'jbr64'
p48
ag12
aS'jcu32'
p49
aS'jcr92'
p50
aS'left'
p51
aS'jbr27'
p52
aS'jbd82'
p53
aS'jbl99'
p54
aS'jbd47'
p55
aS'up'
p56
aS'right'
p57
aS'up'
p58
aS'jcr87'
p59
ag43
aS'jcd57'
p60
aS'jcd19'
p61
aS'jbl96'
p62
aS'jbr93'
p63
ag8
aS'jbr49'
p64
aS'jcd87'
p65
aS'jcl87'
p66
aS'up'
p67
aS'jcd17'
p68
ag40
aS'jbl96'
p69
aS'jbr93'
p70
aS'down'
p71
aS'jbr49'
p72
aS'jcd87'
p73
aS'down'
p74
aS'jcd7'
p75
aS'jbu57'
p76
ag36
ag40
aS'left'
p77
aS'jcd47'
p78
aS'jcu17'
p79
ag36
aS'jcl54'
p80
aS'jcu94'
p81
aS'jcl12'
p82
aS'down'
p83
aS'jcl42'
p84
aS'jbl13'
p85
aS'down'
p86
aS'down'
p87
a.