(lp0
S'jbr0'
p1
aS'jcd48'
p2
aS'jbu37'
p3
aS'jcd48'
p4
aS'jcu34'
p5
aS'jcr88'
p6
aS'jcu2'
p7
aS'jbr43'
p8
aS'right'
p9
aS'jcr20'
p10
aS'right'
p11
aS'jbd95'
p12
aS'jcu50'
p13
aS'jbr69'
p14
aS'up'
p15
aS'jbd42'
p16
aS'down'
p17
aS'jbd84'
p18
aS'jbd99'
p19
aS'jbl16'
p20
ag9
aS'right'
p21
aS'down'
p22
aS'left'
p23
aS'right'
p24
aS'jcl6'
p25
aS'jbu95'
p26
aS'jbu27'
p27
aS'jbl54'
p28
aS'jcr30'
p29
aS'jbu83'
p30
aS'jcl44'
p31
aS'jcd7'
p32
aS'down'
p33
aS'jbl87'
p34
aS'jbr53'
p35
aS'jbl75'
p36
aS'left'
p37
ag23
aS'up'
p38
aS'jbr62'
p39
aS'jbr39'
p40
aS'jbl35'
p41
ag9
aS'jcu14'
p42
aS'left'
p43
aS'jcu28'
p44
aS'jcl54'
p45
aS'up'
p46
ag46
aS'down'
p47
aS'jbl25'
p48
ag9
aS'jcu91'
p49
aS'up'
p50
ag37
aS'up'
p51
ag17
aS'down'
p52
aS'left'
p53
aS'down'
p54
aS'jbr58'
p55
aS'jbr64'
p56
aS'right'
p57
aS'jcu32'
p58
aS'jcr92'
p59
ag53
aS'jbr27'
p60
aS'jbd82'
p61
aS'jbl99'
p62
aS'jcl43'
p63
ag15
aS'right'
p64
aS'jbd63'
p65
aS'jcr87'
p66
ag50
aS'jcd57'
p67
aS'jcd19'
p68
aS'jbl96'
p69
aS'jbr93'
p70
ag17
aS'jbr49'
p71
aS'jcd87'
p72
aS'jcr29'
p73
aS'right'
p74
aS'jbu57'
p75
ag46
aS'left'
p76
aS'jcu31'
p77
aS'jcd47'
p78
aS'jcu17'
p79
aS'jcl83'
p80
ag23
aS'jcu94'
p81
aS'jbr50'
p82
aS'down'
p83
aS'jcl42'
p84
aS'jbl13'
p85
ag47
aS'down'
p86
a.