(lp0
S'jbr0'
p1
aS'jcd48'
p2
aS'jbu37'
p3
aS'down'
p4
aS'jcu34'
p5
aS'jcl5'
p6
aS'jcl96'
p7
aS'jbr43'
p8
aS'left'
p9
aS'jcu61'
p10
ag4
aS'jbd95'
p11
aS'jcu50'
p12
aS'right'
p13
aS'up'
p14
aS'jbu27'
p15
aS'down'
p16
aS'jbd84'
p17
aS'jbd99'
p18
aS'jbl16'
p19
aS'right'
p20
aS'jcr52'
p21
aS'jcd13'
p22
aS'jbl13'
p23
aS'right'
p24
aS'jbr32'
p25
aS'jcr75'
p26
aS'jbu27'
p27
aS'jbl54'
p28
aS'jcl79'
p29
aS'right'
p30
ag13
aS'jcd7'
p31
aS'jcd4'
p32
aS'jbr1'
p33
aS'up'
p34
aS'jbl75'
p35
aS'left'
p36
aS'down'
p37
ag9
ag34
aS'jbd50'
p38
aS'jbl35'
p39
aS'jbd99'
p40
aS'jcu71'
p41
aS'left'
p42
aS'jcl98'
p43
aS'jcl54'
p44
aS'jcr40'
p45
aS'right'
p46
aS'down'
p47
ag34
ag20
aS'jcu91'
p48
aS'up'
p49
ag36
aS'up'
p50
ag16
aS'jbd8'
p51
aS'left'
p52
aS'down'
p53
aS'down'
p54
aS'jbr64'
p55
aS'right'
p56
aS'jcu32'
p57
aS'jcr92'
p58
ag52
aS'jbr27'
p59
aS'jbd82'
p60
aS'jbl99'
p61
aS'jbd47'
p62
ag14
aS'right'
p63
aS'up'
p64
aS'jcr87'
p65
ag49
aS'jcd57'
p66
aS'jcd19'
p67
aS'jbl96'
p68
aS'jbr52'
p69
ag16
aS'jbr49'
p70
aS'jcd87'
p71
ag54
aS'jcd7'
p72
aS'jbu57'
p73
ag16
aS'left'
p74
ag52
aS'jbd97'
p75
aS'jcu17'
p76
aS'jcl83'
p77
aS'jcl54'
p78
aS'jcu94'
p79
aS'jbr50'
p80
aS'jcd92'
p81
aS'jcl42'
p82
aS'jcu54'
p83
ag47
aS'down'
p84
a.