(lp0
S'jbr0'
p1
aS'jcd48'
p2
aS'jbu37'
p3
aS'jcd48'
p4
aS'jcu34'
p5
aS'jcr88'
p6
aS'jcl85'
p7
aS'jbu64'
p8
aS'right'
p9
aS'jcr20'
p10
aS'jbl72'
p11
aS'jbd95'
p12
aS'jcu50'
p13
aS'jbr69'
p14
aS'up'
p15
aS'jbd42'
p16
aS'down'
p17
aS'right'
p18
aS'jbd99'
p19
aS'jbl16'
p20
ag9
aS'left'
p21
aS'down'
p22
ag21
aS'right'
p23
ag18
aS'jbu95'
p24
ag18
aS'up'
p25
aS'jcl79'
p26
aS'right'
p27
aS'jbd28'
p28
aS'jcd7'
p29
aS'jcd4'
p30
aS'jbl87'
p31
aS'jbd84'
p32
aS'jbl75'
p33
aS'left'
p34
aS'down'
p35
aS'jcu39'
p36
aS'jbr62'
p37
aS'jbr39'
p38
aS'jbl35'
p39
ag9
aS'jcu71'
p40
aS'left'
p41
ag21
aS'jbr70'
p42
aS'jcl79'
p43
aS'jbl75'
p44
aS'down'
p45
aS'jbl25'
p46
ag9
aS'jcu91'
p47
aS'up'
p48
ag34
aS'up'
p49
ag17
aS'jcr28'
p50
aS'left'
p51
aS'down'
p52
aS'down'
p53
aS'jbr64'
p54
aS'right'
p55
aS'jcu32'
p56
aS'jcr92'
p57
ag21
ag21
aS'jbd82'
p58
aS'jbl99'
p59
aS'jbd47'
p60
ag15
aS'right'
p61
aS'up'
p62
ag18
aS'jcr37'
p63
aS'jcd57'
p64
aS'jcd19'
p65
aS'jcd82'
p66
ag18
ag17
aS'jbr49'
p67
aS'jcd87'
p68
ag53
aS'jcd7'
p69
aS'jbu57'
p70
ag18
aS'left'
p71
aS'jcl60'
p72
aS'jcd47'
p73
aS'jcd90'
p74
aS'jcl83'
p75
ag25
aS'jcu94'
p76
aS'jcl60'
p77
aS'down'
p78
aS'jcl42'
p79
aS'jbl13'
p80
ag45
aS'down'
p81
a.