(lp0
S'jbr0'
p1
aS'jcd48'
p2
aS'jbu37'
p3
aS'jcd48'
p4
aS'jcu34'
p5
aS'left'
p6
aS'jcl85'
p7
aS'jbr43'
p8
aS'right'
p9
aS'jcr20'
p10
aS'right'
p11
aS'jbd95'
p12
aS'jcu50'
p13
aS'jbr69'
p14
aS'jcd51'
p15
aS'jbd42'
p16
aS'down'
p17
aS'jbd84'
p18
aS'jbd99'
p19
aS'left'
p20
ag17
aS'jbr40'
p21
ag6
aS'jbd47'
p22
ag6
aS'right'
p23
aS'up'
p24
aS'jcr87'
p25
aS'up'
p26
aS'jcd57'
p27
aS'jcd19'
p28
ag17
aS'up'
p29
aS'down'
p30
aS'jbr49'
p31
aS'jcd87'
p32
aS'down'
p33
aS'left'
p34
aS'down'
p35
aS'up'
p36
aS'jbl55'
p37
aS'jbl95'
p38
aS'jbu64'
p39
ag9
aS'jcr86'
p40
aS'left'
p41
aS'jcl98'
p42
aS'jcl54'
p43
aS'jcr40'
p44
aS'right'
p45
aS'down'
p46
aS'jcr49'
p47
ag9
aS'jcu91'
p48
aS'jbu23'
p49
ag34
aS'up'
p50
aS'jcr87'
p51
aS'jcd76'
p52
aS'left'
p53
ag29
aS'jcl7'
p54
aS'jbr64'
p55
aS'jbr31'
p56
aS'jcu32'
p57
aS'jcr92'
p58
ag53
aS'jbr27'
p59
ag29
aS'jbl99'
p60
aS'jbd47'
p61
aS'up'
p62
ag17
aS'up'
p63
aS'jcr87'
p64
aS'up'
p65
aS'jcd57'
p66
aS'jcd24'
p67
aS'right'
p68
aS'jbr93'
p69
aS'down'
p70
aS'jbr49'
p71
aS'jcd87'
p72
aS'down'
p73
aS'jbr14'
p74
aS'jcu65'
p75
ag70
aS'jcl39'
p76
ag53
aS'jbr95'
p77
aS'jcu17'
p78
aS'jcl83'
p79
aS'jcl54'
p80
ag17
aS'jbr50'
p81
aS'down'
p82
aS'jcl42'
p83
aS'jcu75'
p84
ag46
aS'down'
p85
a.