(lp0
S'jbr0'
p1
aS'jcd48'
p2
aS'jbu37'
p3
aS'jcd48'
p4
aS'down'
p5
aS'jcr88'
p6
aS'jcr35'
p7
aS'jbl0'
p8
aS'right'
p9
aS'jcr20'
p10
aS'right'
p11
aS'jbd95'
p12
aS'jcu50'
p13
aS'jbr69'
p14
aS'up'
p15
aS'jcr41'
p16
aS'down'
p17
aS'jbd84'
p18
ag5
aS'jbl16'
p19
ag9
aS'right'
p20
aS'down'
p21
aS'jbl13'
p22
aS'right'
p23
aS'left'
p24
aS'jbu95'
p25
aS'jbu27'
p26
aS'jcr31'
p27
aS'jcl97'
p28
aS'jcr24'
p29
aS'jbl54'
p30
aS'jcd7'
p31
aS'jcd28'
p32
aS'jbl87'
p33
aS'right'
p34
aS'jcl88'
p35
aS'left'
p36
aS'down'
p37
aS'up'
p38
aS'jbr62'
p39
aS'jbr39'
p40
aS'jbl35'
p41
ag9
aS'jcu71'
p42
aS'jcr71'
p43
aS'jcl98'
p44
aS'jcl54'
p45
aS'jcr40'
p46
ag20
aS'up'
p47
aS'jcl81'
p48
aS'jcl90'
p49
aS'jcu91'
p50
aS'jcu82'
p51
ag36
aS'up'
p52
ag17
aS'down'
p53
aS'left'
p54
aS'down'
p55
ag53
ag34
aS'right'
p56
ag5
aS'jcr92'
p57
ag54
ag34
aS'jbd82'
p58
aS'jbl99'
p59
aS'jcr7'
p60
ag15
aS'right'
p61
aS'up'
p62
aS'jbl52'
p63
aS'up'
p64
aS'jcd57'
p65
aS'jbr21'
p66
aS'jbl96'
p67
aS'jbr93'
p68
aS'jcl57'
p69
aS'jcl43'
p70
aS'jcd87'
p71
ag53
ag47
ag34
ag17
aS'left'
p72
ag54
aS'jcd47'
p73
ag47
aS'jcl83'
p74
aS'jcl54'
p75
aS'jcu94'
p76
aS'jbu6'
p77
aS'down'
p78
aS'jcl42'
p79
aS'jbl13'
p80
ag47
aS'down'
p81
a.