(lp0
S'jbr0'
p1
aS'jcd48'
p2
aS'jbu37'
p3
aS'jcd48'
p4
aS'jcu79'
p5
aS'jcr88'
p6
aS'jcl85'
p7
aS'jbr43'
p8
aS'right'
p9
aS'jcr20'
p10
aS'right'
p11
aS'jbd95'
p12
aS'jcu50'
p13
aS'jbr69'
p14
aS'up'
p15
aS'jbd42'
p16
aS'down'
p17
aS'jbu14'
p18
aS'jbd99'
p19
aS'jbl16'
p20
ag9
aS'right'
p21
aS'down'
p22
aS'jbl13'
p23
aS'right'
p24
aS'jcr89'
p25
aS'jbu95'
p26
aS'jcl38'
p27
aS'jbl54'
p28
aS'right'
p29
aS'left'
p30
aS'jcl44'
p31
aS'jcd7'
p32
aS'jbr96'
p33
aS'jbl87'
p34
aS'jbd84'
p35
ag29
aS'left'
p36
aS'down'
p37
aS'up'
p38
aS'jcr79'
p39
aS'jbr39'
p40
aS'jbl35'
p41
ag9
aS'jbd59'
p42
aS'left'
p43
aS'jcl98'
p44
aS'jcl54'
p45
aS'jcr40'
p46
ag21
aS'down'
p47
ag29
aS'up'
p48
aS'jcu91'
p49
aS'jcr84'
p50
aS'jcl64'
p51
aS'up'
p52
aS'jcu61'
p53
aS'jbu88'
p54
aS'jcu28'
p55
aS'down'
p56
aS'down'
p57
ag30
aS'jcu41'
p58
aS'jcu32'
p59
ag29
aS'left'
p60
aS'jbr27'
p61
aS'jcu21'
p62
aS'jbl99'
p63
aS'jbd47'
p64
ag15
aS'right'
p65
aS'jbd71'
p66
aS'right'
p67
aS'down'
p68
aS'jbl13'
p69
aS'right'
p70
aS'jbl65'
p71
aS'jbr93'
p72
ag48
aS'jbr49'
p73
aS'jcd87'
p74
ag57
aS'jcd7'
p75
ag30
ag17
aS'jcd25'
p76
ag60
aS'jcd47'
p77
aS'jcu17'
p78
aS'jcl83'
p79
aS'jcl54'
p80
aS'jcu94'
p81
aS'jbd77'
p82
aS'down'
p83
aS'jcl42'
p84
aS'jbl13'
p85
ag47
aS'down'
p86
a.