(lp0
S'jbr0'
p1
aS'jcd48'
p2
aS'jbu37'
p3
aS'jcd48'
p4
aS'jbl21'
p5
aS'jcr88'
p6
aS'jcl85'
p7
aS'jbr43'
p8
aS'up'
p9
aS'jcr20'
p10
aS'right'
p11
aS'jbd95'
p12
aS'jcu50'
p13
aS'jbr69'
p14
aS'up'
p15
aS'jbd42'
p16
aS'right'
p17
aS'jbd84'
p18
aS'jbd24'
p19
aS'jbl16'
p20
aS'right'
p21
aS'right'
p22
aS'down'
p23
aS'jbl22'
p24
aS'jcl75'
p25
aS'jcl6'
p26
aS'left'
p27
aS'jbr89'
p28
aS'jbl54'
p29
aS'jcl79'
p30
aS'right'
p31
aS'jcl44'
p32
aS'jcd7'
p33
aS'jcd4'
p34
aS'jbl87'
p35
aS'jbd84'
p36
aS'jbl75'
p37
aS'left'
p38
aS'jbu85'
p39
aS'up'
p40
aS'jbr62'
p41
aS'jcl94'
p42
aS'jbl35'
p43
ag21
aS'jbr61'
p44
aS'left'
p45
aS'jbr60'
p46
aS'jcl54'
p47
aS'jcr40'
p48
ag22
aS'down'
p49
ag9
aS'down'
p50
ag27
aS'up'
p51
ag38
aS'up'
p52
aS'jbl13'
p53
aS'down'
p54
aS'left'
p55
aS'jcu73'
p56
ag54
ag17
aS'jcu85'
p57
ag27
aS'jcr92'
p58
aS'jbu38'
p59
aS'jbr27'
p60
aS'jbd82'
p61
aS'jbl99'
p62
aS'jbd47'
p63
ag15
aS'right'
p64
ag9
aS'jbu97'
p65
ag51
aS'jcu9'
p66
ag27
aS'jbl96'
p67
aS'jcr45'
p68
aS'down'
p69
aS'jbr49'
p70
aS'jcd87'
p71
ag54
aS'jcd7'
p72
aS'jbu57'
p73
aS'jbd20'
p74
aS'left'
p75
ag9
aS'jbl80'
p76
aS'jcu17'
p77
ag50
aS'jbu5'
p78
aS'jcu94'
p79
aS'jbr50'
p80
aS'down'
p81
aS'jcd35'
p82
aS'jbl13'
p83
ag49
aS'down'
p84
a.