(lp0
S'jbl21'
p1
aS'jcd48'
p2
aS'jbd9'
p3
aS'jcd48'
p4
aS'down'
p5
aS'jcr88'
p6
aS'jbu92'
p7
aS'jbr43'
p8
aS'right'
p9
aS'jcr47'
p10
aS'up'
p11
aS'jbd95'
p12
aS'jcu50'
p13
aS'jbr69'
p14
aS'up'
p15
aS'jbd42'
p16
ag5
aS'jbd84'
p17
ag11
aS'jbl16'
p18
ag9
aS'jbu55'
p19
aS'down'
p20
aS'jbl13'
p21
aS'jbu21'
p22
aS'jcl6'
p23
aS'jbl82'
p24
aS'jbu27'
p25
aS'jbl92'
p26
aS'jcl79'
p27
aS'right'
p28
aS'jcl44'
p29
aS'jcd7'
p30
aS'right'
p31
aS'jbl87'
p32
aS'jbd84'
p33
aS'jbl75'
p34
aS'left'
p35
aS'down'
p36
aS'up'
p37
aS'jbr62'
p38
aS'jbd1'
p39
aS'jbl35'
p40
ag9
aS'jcu71'
p41
aS'left'
p42
aS'jcl98'
p43
aS'jcl54'
p44
aS'jbd100'
p45
ag31
aS'down'
p46
aS'jbl25'
p47
ag9
aS'jcu91'
p48
aS'up'
p49
ag35
aS'up'
p50
aS'jcd57'
p51
aS'down'
p52
aS'left'
p53
aS'down'
p54
ag52
aS'jbr64'
p55
aS'jcr53'
p56
aS'jcu32'
p57
aS'jbu22'
p58
ag53
aS'jbu95'
p59
aS'jbd82'
p60
aS'left'
p61
aS'jbl90'
p62
ag15
aS'right'
p63
aS'up'
p64
ag11
aS'jbu87'
p65
aS'jbr27'
p66
aS'jcd19'
p67
aS'jbl96'
p68
aS'jbu94'
p69
ag31
ag11
aS'jcd87'
p70
aS'jbl88'
p71
aS'jcd7'
p72
aS'jbu57'
p73
ag31
aS'left'
p74
ag53
aS'jcd47'
p75
aS'jcu17'
p76
aS'jcl15'
p77
aS'jcl54'
p78
aS'jbl32'
p79
aS'jbr50'
p80
aS'down'
p81
aS'jcl42'
p82
aS'jbl13'
p83
ag11
aS'down'
p84
a.