(lp0
S'jcd56'
p1
aS'jcd48'
p2
aS'right'
p3
aS'jcd48'
p4
aS'jcu34'
p5
aS'jcr48'
p6
aS'jcl85'
p7
aS'jbr43'
p8
aS'jbr43'
p9
aS'jcr20'
p10
ag3
aS'jbd95'
p11
aS'jcu50'
p12
aS'jbr69'
p13
aS'jbu32'
p14
aS'jcd16'
p15
aS'down'
p16
aS'jbu69'
p17
ag3
aS'jbl16'
p18
aS'right'
p19
aS'right'
p20
aS'jbl56'
p21
aS'jbl77'
p22
aS'right'
p23
aS'jcd29'
p24
aS'jbu95'
p25
aS'jbu75'
p26
aS'jcu51'
p27
aS'jcl79'
p28
ag3
aS'left'
p29
aS'jcd7'
p30
aS'jbu29'
p31
aS'jbd69'
p32
aS'jbd84'
p33
aS'jbl75'
p34
aS'left'
p35
aS'down'
p36
aS'up'
p37
aS'jbr62'
p38
aS'jbd97'
p39
aS'jbl35'
p40
ag19
aS'jcu71'
p41
aS'left'
p42
aS'jcl98'
p43
aS'jcl54'
p44
aS'jcr40'
p45
aS'down'
p46
aS'down'
p47
aS'jbl25'
p48
ag19
aS'jcu91'
p49
aS'up'
p50
ag3
ag29
ag16
aS'down'
p51
aS'left'
p52
aS'down'
p53
ag51
aS'jbr64'
p54
aS'right'
p55
aS'jcu32'
p56
aS'jbr69'
p57
ag52
aS'jbr27'
p58
aS'jbd82'
p59
aS'jbl95'
p60
aS'jbd47'
p61
aS'jbu57'
p62
ag29
aS'jbr27'
p63
ag29
ag46
aS'jcd57'
p64
aS'jcd19'
p65
aS'jbl96'
p66
ag3
ag16
aS'jbr49'
p67
ag29
ag51
ag3
aS'jbu57'
p68
ag16
aS'jbu93'
p69
aS'up'
p70
aS'jcd47'
p71
aS'jcu17'
p72
aS'jcu88'
p73
aS'jcl54'
p74
aS'jcu94'
p75
aS'jbr50'
p76
aS'jbu80'
p77
aS'jcl42'
p78
aS'jbl13'
p79
ag47
aS'down'
p80
a.