(lp0
S'jbr0'
p1
aS'jcd48'
p2
aS'jbu37'
p3
aS'jcd48'
p4
aS'jcu34'
p5
aS'jcr88'
p6
aS'jcl85'
p7
aS'jbr86'
p8
aS'jcd93'
p9
aS'jcr20'
p10
aS'jcl27'
p11
aS'jcd81'
p12
aS'jcu50'
p13
aS'jbd91'
p14
aS'up'
p15
aS'jbr82'
p16
aS'down'
p17
aS'jbd84'
p18
aS'jbd99'
p19
aS'right'
p20
aS'right'
p21
aS'right'
p22
aS'jcu37'
p23
aS'jbr65'
p24
aS'jcl81'
p25
aS'jcl6'
p26
aS'jbu95'
p27
aS'jbu27'
p28
ag20
aS'jcl79'
p29
aS'jbl39'
p30
aS'left'
p31
ag31
aS'jcd4'
p32
aS'jbl32'
p33
aS'jbd84'
p34
aS'jbl75'
p35
aS'left'
p36
aS'jcl73'
p37
aS'jbd84'
p38
aS'jbl47'
p39
aS'left'
p40
aS'down'
p41
aS'up'
p42
aS'jbr62'
p43
aS'jbr39'
p44
aS'jbl35'
p45
aS'right'
p46
aS'jcu71'
p47
aS'left'
p48
aS'jcd23'
p49
aS'jcl54'
p50
aS'jcr40'
p51
aS'jcu81'
p52
aS'down'
p53
aS'jbl25'
p54
ag46
aS'jcu91'
p55
aS'down'
p56
aS'left'
p57
ag20
ag56
aS'jbl92'
p58
aS'up'
p59
aS'jcu32'
p60
ag20
ag57
aS'jbr27'
p61
aS'jbd82'
p62
aS'jcu83'
p63
aS'jbd47'
p64
aS'jcd48'
p65
aS'right'
p66
aS'up'
p67
aS'jcr87'
p68
aS'up'
p69
aS'jcd57'
p70
aS'jcd19'
p71
aS'jbl96'
p72
aS'jbr93'
p73
ag17
aS'jbr49'
p74
aS'jcd87'
p75
ag56
aS'jcu3'
p76
aS'jbu57'
p77
ag17
ag20
ag57
aS'jcd47'
p78
aS'jcu17'
p79
aS'jcl83'
p80
aS'jcl54'
p81
aS'jcu94'
p82
aS'jcl21'
p83
aS'jbl53'
p84
aS'jcl43'
p85
aS'jbl13'
p86
aS'down'
p87
aS'down'
p88
a.