(lp0
S'jbr0'
p1
aS'jcd48'
p2
aS'jbu37'
p3
aS'jcu65'
p4
aS'jcu34'
p5
aS'jcr88'
p6
aS'jbu4'
p7
aS'jbr43'
p8
aS'right'
p9
aS'jbu21'
p10
aS'right'
p11
aS'jbd95'
p12
aS'jcl57'
p13
aS'jbr69'
p14
aS'up'
p15
aS'jbl81'
p16
aS'down'
p17
aS'jbd84'
p18
aS'down'
p19
aS'jcr31'
p20
ag9
aS'right'
p21
aS'jbl45'
p22
aS'jbl13'
p23
aS'up'
p24
aS'jcl6'
p25
aS'jbl29'
p26
aS'jbu27'
p27
aS'jbl76'
p28
aS'jcl79'
p29
aS'right'
p30
aS'jbr24'
p31
aS'jcd7'
p32
aS'jcd4'
p33
aS'jbl87'
p34
aS'jbu73'
p35
aS'jbu88'
p36
aS'left'
p37
aS'jbr98'
p38
aS'up'
p39
ag24
aS'jbl66'
p40
aS'jbl35'
p41
ag9
aS'jcu71'
p42
aS'left'
p43
aS'jbl41'
p44
aS'jcr60'
p45
aS'jcr40'
p46
aS'jcd75'
p47
aS'down'
p48
aS'left'
p49
aS'jbd34'
p50
aS'jbu10'
p51
aS'up'
p52
aS'jbd71'
p53
aS'up'
p54
ag17
aS'down'
p55
ag24
aS'down'
p56
ag55
aS'jbr64'
p57
aS'right'
p58
aS'jcu32'
p59
aS'jcd88'
p60
aS'left'
p61
aS'jbr27'
p62
aS'jbd82'
p63
ag24
aS'jbd47'
p64
ag15
aS'right'
p65
aS'up'
p66
aS'jbd39'
p67
aS'jbu47'
p68
aS'jcd57'
p69
ag49
aS'jbl96'
p70
aS'jbr93'
p71
ag17
aS'jbu2'
p72
aS'jcd87'
p73
ag55
aS'jcd7'
p74
aS'jbu57'
p75
aS'jcu36'
p76
ag49
ag61
aS'jcd47'
p77
aS'jbd60'
p78
aS'jcl83'
p79
aS'jcl54'
p80
aS'jcu94'
p81
aS'jbu96'
p82
aS'down'
p83
aS'jcl42'
p84
aS'jbl13'
p85
ag48
aS'down'
p86
a.