(lp0
S'jbr0'
p1
aS'jbd100'
p2
aS'jbu37'
p3
aS'jcd48'
p4
aS'jcu34'
p5
aS'jcr45'
p6
aS'jbu53'
p7
aS'jbr43'
p8
aS'right'
p9
aS'jcr20'
p10
aS'right'
p11
aS'jbl18'
p12
aS'jcu50'
p13
aS'jbu47'
p14
aS'up'
p15
aS'jbd42'
p16
aS'down'
p17
aS'left'
p18
aS'jbd99'
p19
aS'jbl16'
p20
ag9
aS'jbr46'
p21
aS'down'
p22
aS'jcl76'
p23
aS'jcd41'
p24
aS'jcl6'
p25
aS'jbr28'
p26
aS'jbu63'
p27
aS'jbl54'
p28
aS'down'
p29
aS'right'
p30
aS'jcl44'
p31
ag29
aS'jbr46'
p32
aS'jbl87'
p33
aS'jbr58'
p34
ag18
aS'left'
p35
aS'down'
p36
aS'up'
p37
aS'jbu74'
p38
aS'jbr39'
p39
aS'jbl35'
p40
ag9
aS'jcu71'
p41
aS'jcu88'
p42
aS'jcl98'
p43
aS'jcl54'
p44
aS'jcr40'
p45
aS'right'
p46
aS'jcr76'
p47
aS'jbl25'
p48
ag9
aS'jcu91'
p49
aS'up'
p50
aS'jbu95'
p51
aS'jbd11'
p52
aS'jcd75'
p53
aS'down'
p54
aS'left'
p55
ag18
ag54
ag18
aS'jbl51'
p56
aS'right'
p57
aS'jcl57'
p58
ag55
aS'jbr27'
p59
aS'jcu16'
p60
aS'jbl99'
p61
aS'jbd47'
p62
ag15
aS'right'
p63
aS'up'
p64
ag29
ag57
aS'jbd22'
p65
aS'jcd19'
p66
aS'jbl96'
p67
aS'jbr93'
p68
aS'up'
p69
aS'jbr49'
p70
aS'jcd87'
p71
ag54
aS'jcd7'
p72
aS'jbu57'
p73
ag17
aS'jcu88'
p74
aS'jbd24'
p75
aS'jcd47'
p76
aS'jcu17'
p77
aS'jbd81'
p78
aS'jcl54'
p79
aS'jbu47'
p80
aS'jbu84'
p81
aS'jcu54'
p82
aS'jcl42'
p83
aS'jbl13'
p84
aS'down'
p85
aS'down'
p86
a.