(lp0
S'jcr5'
p1
aS'jcd48'
p2
aS'jbu37'
p3
aS'jbu93'
p4
aS'jbl19'
p5
aS'jbd74'
p6
aS'left'
p7
aS'jbr43'
p8
aS'right'
p9
aS'jbd32'
p10
aS'jcu32'
p11
aS'jcu54'
p12
aS'jcu50'
p13
aS'jbd84'
p14
aS'jbd99'
p15
aS'jbl16'
p16
aS'right'
p17
aS'right'
p18
aS'down'
p19
aS'jbl13'
p20
aS'jbu66'
p21
aS'down'
p22
aS'jbu95'
p23
aS'jbu27'
p24
aS'jbl54'
p25
aS'jcl79'
p26
aS'right'
p27
aS'jbu13'
p28
aS'jbd43'
p29
aS'right'
p30
aS'jbr16'
p31
aS'jbd84'
p32
aS'jbl75'
p33
aS'left'
p34
aS'up'
p35
aS'up'
p36
aS'jbd54'
p37
aS'jbr57'
p38
aS'jbl35'
p39
ag17
aS'jcr22'
p40
aS'left'
p41
aS'jcl98'
p42
aS'jcl54'
p43
aS'jcr40'
p44
ag18
aS'down'
p45
ag35
ag30
aS'jcu91'
p46
ag35
aS'jcu29'
p47
aS'up'
p48
aS'down'
p49
aS'jbd70'
p50
ag22
aS'jbu14'
p51
aS'down'
p52
aS'jbr64'
p53
aS'right'
p54
aS'jcu32'
p55
aS'jcr92'
p56
aS'left'
p57
aS'jbr27'
p58
aS'jbd82'
p59
aS'jbl99'
p60
aS'jcr20'
p61
aS'up'
p62
ag22
ag30
aS'jcr87'
p63
aS'up'
p64
aS'jcd57'
p65
ag35
aS'jbl96'
p66
aS'jbr93'
p67
ag49
aS'jbr49'
p68
aS'jcd87'
p69
aS'jcl17'
p70
ag7
aS'jbr49'
p71
aS'jcd87'
p72
aS'jcd51'
p73
aS'jcd7'
p74
aS'jcu75'
p75
ag35
aS'left'
p76
aS'jbl95'
p77
aS'jcd47'
p78
aS'jcu17'
p79
aS'jcl83'
p80
aS'jcl54'
p81
ag30
aS'jbl45'
p82
aS'down'
p83
aS'jcd57'
p84
aS'jbl13'
p85
aS'down'
p86
aS'down'
p87
a.