(lp0
S'jbr0'
p1
aS'jcd48'
p2
aS'jbu37'
p3
aS'jcd48'
p4
aS'jcl61'
p5
aS'jcr88'
p6
aS'up'
p7
aS'jbr43'
p8
aS'right'
p9
aS'jbu95'
p10
aS'right'
p11
aS'jbd95'
p12
aS'jcu50'
p13
aS'jbr75'
p14
aS'up'
p15
aS'jbr0'
p16
aS'down'
p17
aS'jbr8'
p18
aS'jbd99'
p19
aS'jcl6'
p20
aS'jbu80'
p21
aS'jbu27'
p22
ag7
aS'jcl79'
p23
aS'right'
p24
aS'jcl44'
p25
aS'right'
p26
aS'jbl82'
p27
ag7
aS'left'
p28
aS'jbl75'
p29
aS'left'
p30
aS'jcl67'
p31
aS'up'
p32
aS'jbu57'
p33
aS'jbr39'
p34
aS'jcl22'
p35
aS'right'
p36
aS'jcu71'
p37
aS'jbr51'
p38
ag7
aS'jbd84'
p39
ag7
aS'right'
p40
aS'down'
p41
aS'jcu33'
p42
aS'jbd64'
p43
aS'down'
p44
aS'jbd77'
p45
aS'jbu26'
p46
aS'jbd77'
p47
aS'down'
p48
aS'down'
p49
aS'left'
p50
ag44
ag49
aS'jbr64'
p51
aS'jcd87'
p52
aS'jcu32'
p53
ag7
ag50
aS'jbr27'
p54
aS'jcl87'
p55
aS'jbl99'
p56
aS'jbd47'
p57
aS'up'
p58
aS'right'
p59
ag26
aS'jcr87'
p60
aS'up'
p61
aS'jcu41'
p62
aS'jcd19'
p63
aS'jcd70'
p64
aS'jbr93'
p65
ag48
aS'jbr49'
p66
aS'jcd87'
p67
ag49
aS'jcd7'
p68
aS'jbu57'
p69
aS'jbl31'
p70
aS'left'
p71
ag50
aS'jcd47'
p72
aS'jcd7'
p73
aS'jbu57'
p74
ag26
aS'left'
p75
ag26
aS'jcd47'
p76
aS'jcu17'
p77
aS'jcl83'
p78
aS'jcl54'
p79
ag7
ag28
ag28
ag7
aS'jbl13'
p80
aS'down'
p81
aS'down'
p82
a.