(lp0
S'jbr0'
p1
aS'jcd48'
p2
aS'jbu37'
p3
aS'jcd48'
p4
aS'jcu34'
p5
aS'jcr88'
p6
aS'jcl85'
p7
aS'jbr43'
p8
aS'right'
p9
aS'jbd15'
p10
aS'jbd76'
p11
aS'jbl90'
p12
aS'jcu89'
p13
aS'jbr69'
p14
aS'up'
p15
aS'jbd42'
p16
aS'left'
p17
aS'up'
p18
aS'jbd12'
p19
aS'jbu88'
p20
aS'right'
p21
aS'right'
p22
aS'jcd82'
p23
aS'jbl13'
p24
aS'right'
p25
aS'jcl6'
p26
aS'jcr21'
p27
aS'jbu27'
p28
aS'jbl54'
p29
aS'jcl79'
p30
aS'jcu82'
p31
aS'jcl44'
p32
aS'jbr11'
p33
aS'jbu11'
p34
aS'jbl87'
p35
aS'down'
p36
aS'jbl75'
p37
aS'left'
p38
aS'down'
p39
aS'jcl94'
p40
aS'jbr62'
p41
ag18
aS'jbl35'
p42
ag36
ag17
aS'jcd58'
p43
aS'jcl98'
p44
aS'jcl54'
p45
aS'jcr40'
p46
ag22
aS'down'
p47
aS'jbl25'
p48
ag21
ag9
aS'up'
p49
ag38
aS'up'
p50
aS'down'
p51
aS'down'
p52
aS'left'
p53
aS'jbl75'
p54
ag52
aS'jcr52'
p55
aS'right'
p56
ag18
aS'jcu32'
p57
ag36
aS'jbr27'
p58
aS'jbd82'
p59
aS'jbl99'
p60
ag18
ag15
aS'right'
p61
aS'up'
p62
aS'jcr87'
p63
ag49
aS'jcd57'
p64
aS'jcd19'
p65
ag36
aS'jbr93'
p66
ag51
aS'jbr49'
p67
aS'jcd0'
p68
aS'jbu43'
p69
aS'jbd20'
p70
aS'jbu57'
p71
ag17
aS'jbu14'
p72
ag53
ag9
aS'jbl46'
p73
aS'jcl83'
p74
aS'jcl54'
p75
aS'jcr47'
p76
aS'jbr50'
p77
aS'down'
p78
aS'jcl31'
p79
aS'jbd22'
p80
ag47
aS'down'
p81
a.