(lp0
S'jbr0'
p1
aS'jbr23'
p2
aS'jbu37'
p3
aS'jcd48'
p4
aS'jcu34'
p5
aS'jcl26'
p6
aS'left'
p7
aS'jcl16'
p8
aS'right'
p9
aS'jcr20'
p10
aS'right'
p11
aS'jbd95'
p12
aS'jcl86'
p13
aS'down'
p14
aS'up'
p15
aS'jbd42'
p16
aS'down'
p17
aS'jbd84'
p18
ag11
aS'jbl16'
p19
ag9
aS'jbd55'
p20
aS'down'
p21
aS'jbl13'
p22
aS'jcr98'
p23
aS'jcu1'
p24
aS'jcl29'
p25
aS'down'
p26
aS'jbl54'
p27
aS'up'
p28
aS'right'
p29
aS'jcu69'
p30
aS'jcd7'
p31
ag14
aS'jcu27'
p32
ag11
aS'jbl75'
p33
aS'left'
p34
aS'down'
p35
aS'up'
p36
aS'jbr62'
p37
ag14
aS'jbl35'
p38
ag11
aS'jcu71'
p39
aS'left'
p40
aS'jcl98'
p41
aS'jcl54'
p42
ag11
aS'right'
p43
aS'down'
p44
aS'jbl25'
p45
aS'jbd16'
p46
aS'jcu91'
p47
aS'jbu59'
p48
ag34
aS'up'
p49
aS'jcr39'
p50
aS'down'
p51
aS'left'
p52
ag28
ag51
aS'jbr64'
p53
aS'right'
p54
aS'jcu32'
p55
ag14
ag52
aS'jbr27'
p56
aS'jcd18'
p57
aS'jbl99'
p58
aS'jbu22'
p59
aS'jcr84'
p60
aS'right'
p61
aS'up'
p62
aS'jcr87'
p63
aS'jbd67'
p64
aS'jcd57'
p65
aS'jcu72'
p66
aS'jbl96'
p67
aS'jbr93'
p68
ag17
aS'jcd79'
p69
aS'jcd87'
p70
ag51
aS'jbr78'
p71
aS'jcd6'
p72
ag14
aS'left'
p73
ag52
aS'jcd47'
p74
aS'jbr53'
p75
aS'jcl83'
p76
aS'jcl54'
p77
aS'jcu94'
p78
aS'jbr50'
p79
aS'jbu91'
p80
aS'jcl42'
p81
aS'jbl95'
p82
ag44
ag14
a.