(lp0
S'jbr0'
p1
aS'jcd48'
p2
aS'jbu37'
p3
aS'right'
p4
aS'jcu34'
p5
aS'jcr88'
p6
aS'left'
p7
aS'jbl58'
p8
aS'right'
p9
aS'jcr20'
p10
aS'jbr82'
p11
aS'jcl3'
p12
aS'down'
p13
aS'jbr69'
p14
aS'up'
p15
aS'up'
p16
aS'down'
p17
aS'jcl8'
p18
aS'jbd99'
p19
aS'jbl16'
p20
ag9
aS'jcu17'
p21
aS'down'
p22
aS'jcr92'
p23
aS'right'
p24
aS'jcr84'
p25
aS'jcd21'
p26
aS'jbu27'
p27
aS'jbr50'
p28
ag4
aS'right'
p29
aS'jcr62'
p30
ag7
ag4
aS'jcd17'
p31
aS'jbu1'
p32
aS'jbl75'
p33
aS'left'
p34
aS'down'
p35
ag13
aS'jbl54'
p36
ag4
aS'jbl35'
p37
ag9
aS'jcu71'
p38
ag13
ag13
aS'jbd70'
p39
ag4
aS'right'
p40
aS'down'
p41
aS'jbl25'
p42
aS'jbu31'
p43
aS'jbu72'
p44
aS'jbl24'
p45
aS'jcu97'
p46
aS'up'
p47
ag13
aS'down'
p48
aS'left'
p49
aS'down'
p50
ag48
ag7
aS'right'
p51
aS'jcu32'
p52
aS'jcr92'
p53
aS'jbr72'
p54
aS'jbr27'
p55
aS'jcu6'
p56
ag16
aS'jbd47'
p57
aS'jcu56'
p58
aS'right'
p59
ag7
aS'jcr87'
p60
aS'jcl46'
p61
aS'jcd57'
p62
aS'jbd88'
p63
ag16
aS'jbr93'
p64
aS'jbu4'
p65
aS'jbr49'
p66
aS'jbu23'
p67
ag48
aS'jcd7'
p68
aS'jbu57'
p69
ag17
aS'left'
p70
ag49
aS'jcd47'
p71
aS'jcu17'
p72
aS'jcr98'
p73
aS'jcl54'
p74
aS'jcu94'
p75
aS'jbr50'
p76
aS'jcu74'
p77
aS'jcl42'
p78
aS'jbl13'
p79
ag41
aS'down'
p80
a.