(lp0
S'jbr0'
p1
aS'jbr47'
p2
aS'jbu37'
p3
aS'right'
p4
aS'jcu34'
p5
aS'jbd90'
p6
aS'down'
p7
aS'jbd39'
p8
aS'jbu46'
p9
aS'jcr20'
p10
aS'up'
p11
aS'jbd95'
p12
aS'jbd40'
p13
aS'down'
p14
ag7
aS'jbl42'
p15
aS'jbr39'
p16
aS'jbl35'
p17
aS'jbu53'
p18
aS'jcu71'
p19
ag7
ag11
aS'jcl54'
p20
ag4
aS'jbr85'
p21
aS'jcd67'
p22
aS'jbl25'
p23
aS'right'
p24
ag4
ag4
aS'left'
p25
aS'up'
p26
aS'jbu51'
p27
aS'down'
p28
aS'left'
p29
aS'down'
p30
aS'jbu75'
p31
aS'jbr64'
p32
aS'right'
p33
aS'jcu32'
p34
aS'jcr92'
p35
ag29
aS'jcu9'
p36
aS'jbd82'
p37
ag4
aS'jbr82'
p38
aS'jcl98'
p39
aS'jcl54'
p40
aS'jcr40'
p41
aS'jcu91'
p42
aS'jbl42'
p43
aS'jbl25'
p44
aS'jcu1'
p45
aS'jcu25'
p46
ag7
aS'left'
p47
aS'jcl100'
p48
aS'jcd91'
p49
aS'jcu40'
p50
aS'left'
p51
aS'jbu55'
p52
aS'down'
p53
aS'jcr77'
p54
aS'right'
p55
aS'jcu32'
p56
aS'jcr92'
p57
ag51
aS'jbr27'
p58
aS'jbd82'
p59
aS'jbl99'
p60
aS'jbd47'
p61
aS'up'
p62
aS'jcl73'
p63
aS'up'
p64
aS'jcr87'
p65
aS'up'
p66
aS'jcd57'
p67
aS'left'
p68
aS'jbl96'
p69
aS'jbr93'
p70
ag68
aS'jbr49'
p71
aS'jcd87'
p72
ag53
aS'jcd7'
p73
aS'jbu57'
p74
aS'down'
p75
aS'jcd30'
p76
aS'jbl100'
p77
aS'jcd47'
p78
ag7
aS'jbr0'
p79
ag4
aS'jcd8'
p80
aS'jbr50'
p81
aS'jbl18'
p82
aS'jbl33'
p83
aS'jbl13'
p84
aS'down'
p85
aS'down'
p86
a.