(lp0
S'jbu97'
p1
aS'jbd56'
p2
aS'jbu37'
p3
aS'jcd48'
p4
aS'jcu34'
p5
aS'jcr83'
p6
aS'jcl85'
p7
aS'jcr21'
p8
aS'right'
p9
aS'jcr20'
p10
aS'jcl6'
p11
aS'jcu22'
p12
aS'jcu50'
p13
aS'jbr69'
p14
aS'jbr6'
p15
aS'jbd42'
p16
aS'up'
p17
aS'left'
p18
aS'jbd99'
p19
aS'jbl16'
p20
aS'jcl0'
p21
aS'right'
p22
aS'down'
p23
ag17
aS'right'
p24
aS'jcl6'
p25
aS'jcr94'
p26
aS'jbu27'
p27
aS'down'
p28
ag18
aS'jbd29'
p29
aS'jcl44'
p30
aS'jcd7'
p31
aS'jcl46'
p32
aS'jbl87'
p33
aS'jcd22'
p34
aS'jcl69'
p35
aS'left'
p36
ag28
aS'jbu58'
p37
aS'jbr62'
p38
aS'jbr39'
p39
aS'jbr30'
p40
aS'jbl0'
p41
aS'jcu71'
p42
aS'left'
p43
aS'jcl98'
p44
aS'jcl54'
p45
aS'jcr40'
p46
ag22
aS'down'
p47
aS'jcr90'
p48
aS'right'
p49
aS'jcu91'
p50
aS'up'
p51
ag36
ag28
aS'jcl59'
p52
aS'down'
p53
ag18
aS'jcl10'
p54
aS'right'
p55
aS'jbr64'
p56
aS'right'
p57
aS'jcu32'
p58
aS'jcu85'
p59
aS'jcr8'
p60
aS'jbr27'
p61
aS'jbd47'
p62
aS'jbl99'
p63
aS'jbd47'
p64
aS'up'
p65
aS'jcr44'
p66
aS'up'
p67
aS'jcr87'
p68
aS'jbr67'
p69
aS'jcd57'
p70
aS'jcd19'
p71
aS'jbl96'
p72
aS'jcd75'
p73
aS'down'
p74
aS'jbr53'
p75
aS'jbr69'
p76
ag28
aS'jcd7'
p77
aS'jbu57'
p78
aS'jcl82'
p79
aS'left'
p80
aS'left'
p81
aS'jcd47'
p82
aS'jcu17'
p83
aS'jcl83'
p84
aS'jcl54'
p85
aS'jcu94'
p86
ag17
aS'down'
p87
aS'jcu70'
p88
aS'jcu83'
p89
aS'jbd43'
p90
aS'down'
p91
a.