(lp0
S'jcu4'
p1
aS'down'
p2
aS'jbu37'
p3
aS'jcd48'
p4
aS'jcu34'
p5
aS'jcr88'
p6
aS'right'
p7
aS'jbr43'
p8
aS'up'
p9
aS'jcr20'
p10
aS'jcr85'
p11
aS'jbd95'
p12
aS'jcl31'
p13
aS'jbu47'
p14
aS'up'
p15
aS'jbd42'
p16
aS'jbl45'
p17
aS'jbd84'
p18
aS'jbu21'
p19
aS'jbl16'
p20
aS'jbd96'
p21
aS'jbd69'
p22
aS'down'
p23
aS'jbl13'
p24
aS'right'
p25
aS'jcl6'
p26
aS'jcr85'
p27
aS'left'
p28
aS'jbl54'
p29
ag28
aS'jcl43'
p30
aS'jcl44'
p31
aS'jcu95'
p32
aS'jcd4'
p33
aS'jbl87'
p34
aS'jbd84'
p35
aS'jbl75'
p36
aS'left'
p37
aS'jbu96'
p38
aS'up'
p39
aS'jbr62'
p40
aS'jbr39'
p41
aS'jbl35'
p42
aS'right'
p43
aS'jcu71'
p44
ag7
aS'jcu2'
p45
aS'jcl11'
p46
aS'jcr40'
p47
aS'right'
p48
aS'jcd13'
p49
aS'jcl43'
p50
ag43
aS'jcu91'
p51
aS'up'
p52
ag37
aS'up'
p53
ag7
aS'down'
p54
aS'left'
p55
aS'down'
p56
aS'jcr86'
p57
aS'jbr64'
p58
aS'jbl25'
p59
aS'jcd16'
p60
aS'jcr92'
p61
aS'jbd57'
p62
aS'jbr27'
p63
ag9
aS'jbl42'
p64
aS'jcl31'
p65
ag15
aS'jcr1'
p66
ag9
ag2
ag52
aS'jcd57'
p67
ag2
aS'jbl96'
p68
aS'jcd13'
p69
aS'down'
p70
aS'jbr49'
p71
aS'jcd87'
p72
ag54
aS'jcd7'
p73
aS'jbr13'
p74
ag70
aS'left'
p75
ag55
aS'jcd47'
p76
aS'jbr49'
p77
aS'jcl83'
p78
aS'jcl54'
p79
aS'jcu94'
p80
ag28
aS'down'
p81
aS'jcr2'
p82
ag28
aS'jcu39'
p83
aS'jbu43'
p84
a.