(lp0
S'jbl100'
p1
aS'jcd48'
p2
aS'jbu37'
p3
aS'jcd48'
p4
aS'right'
p5
aS'jcu41'
p6
aS'jcl85'
p7
aS'jbr43'
p8
aS'right'
p9
aS'jcr20'
p10
aS'right'
p11
aS'jbd95'
p12
aS'jcu50'
p13
aS'jbr69'
p14
aS'up'
p15
aS'jcd73'
p16
aS'jcu66'
p17
aS'up'
p18
aS'jbd12'
p19
aS'jbl16'
p20
ag9
aS'jbr94'
p21
aS'down'
p22
ag5
aS'right'
p23
aS'jcl6'
p24
aS'down'
p25
aS'jbu27'
p26
aS'jbr6'
p27
aS'jcl79'
p28
aS'right'
p29
ag18
ag18
aS'jcd4'
p30
aS'jbl87'
p31
aS'jcr22'
p32
ag18
ag5
aS'down'
p33
aS'up'
p34
aS'jbr62'
p35
aS'jbr39'
p36
aS'jbl35'
p37
ag9
ag18
aS'left'
p38
aS'jcl98'
p39
aS'left'
p40
aS'jbu11'
p41
aS'right'
p42
aS'jcl64'
p43
aS'jbd11'
p44
ag40
aS'jbd38'
p45
ag5
aS'left'
p46
aS'up'
p47
aS'jbd56'
p48
aS'down'
p49
aS'jbd32'
p50
aS'jbu32'
p51
ag49
aS'jbu50'
p52
aS'right'
p53
aS'jcl91'
p54
aS'jcr92'
p55
aS'left'
p56
aS'jbr27'
p57
aS'jbr76'
p58
aS'jbl99'
p59
ag5
ag15
aS'right'
p60
aS'up'
p61
ag40
aS'jbr58'
p62
aS'jcd57'
p63
aS'jcd19'
p64
aS'jbl96'
p65
aS'jcl59'
p66
aS'right'
p67
aS'jcu71'
p68
ag40
aS'jcl98'
p69
aS'jcd1'
p70
aS'jcd63'
p71
aS'jbu71'
p72
aS'down'
p73
aS'jbu68'
p74
aS'jcd5'
p75
aS'jcu91'
p76
aS'up'
p77
aS'left'
p78
aS'jcr57'
p79
aS'down'
p80
aS'down'
p81
aS'left'
p82
aS'down'
p83
aS'jbd42'
p84
aS'jbu59'
p85
a.