(lp0
S'jbr0'
p1
aS'right'
p2
aS'jbr86'
p3
aS'jcd48'
p4
aS'jcr47'
p5
aS'jcr88'
p6
aS'jcl85'
p7
aS'jbr43'
p8
aS'right'
p9
aS'jcr20'
p10
aS'right'
p11
aS'jbd95'
p12
aS'jcu50'
p13
aS'jbd91'
p14
aS'jcl11'
p15
aS'jbd42'
p16
aS'down'
p17
aS'jbd84'
p18
aS'jbu31'
p19
aS'jbl16'
p20
ag9
aS'right'
p21
aS'down'
p22
aS'down'
p23
aS'right'
p24
aS'jcl6'
p25
aS'jbu95'
p26
aS'jbu27'
p27
aS'jbl54'
p28
aS'left'
p29
aS'right'
p30
aS'jcl44'
p31
aS'up'
p32
aS'jbu43'
p33
aS'jbl87'
p34
aS'jbd84'
p35
aS'jbl75'
p36
aS'left'
p37
aS'jcr0'
p38
aS'up'
p39
ag23
aS'jbr39'
p40
aS'jcd34'
p41
ag2
ag2
aS'left'
p42
ag32
aS'jcu82'
p43
aS'jcd10'
p44
ag21
aS'jcr45'
p45
aS'jcr91'
p46
ag9
aS'jcu91'
p47
aS'jcr63'
p48
aS'jcd73'
p49
aS'up'
p50
ag17
aS'jcl60'
p51
ag29
aS'down'
p52
aS'jcu66'
p53
ag2
aS'jcu78'
p54
ag23
aS'left'
p55
aS'jcu54'
p56
aS'jbd71'
p57
aS'jbr10'
p58
aS'jbl99'
p59
aS'jbd47'
p60
aS'up'
p61
aS'jbd93'
p62
aS'up'
p63
aS'jcu60'
p64
aS'up'
p65
aS'jcd46'
p66
aS'jcd19'
p67
aS'jcl12'
p68
aS'jbr93'
p69
aS'jbd63'
p70
aS'jbr49'
p71
ag29
ag32
aS'jcd7'
p72
ag29
aS'jcl89'
p73
ag29
aS'jbd62'
p74
aS'jcd47'
p75
aS'jcu17'
p76
aS'jcl83'
p77
ag2
aS'jcu94'
p78
aS'jcr100'
p79
aS'down'
p80
ag32
ag2
aS'jbu40'
p81
aS'down'
p82
a.