(lp0
S'jbr0'
p1
aS'jcd48'
p2
aS'jbu37'
p3
aS'jcd48'
p4
aS'jcu34'
p5
aS'jbr63'
p6
aS'jcl85'
p7
aS'jbr43'
p8
aS'right'
p9
aS'jcd75'
p10
aS'right'
p11
aS'jcl26'
p12
aS'jcu97'
p13
aS'jbr69'
p14
aS'up'
p15
aS'jbd42'
p16
aS'down'
p17
aS'jcl65'
p18
aS'jbu47'
p19
aS'jbl16'
p20
aS'jbr39'
p21
aS'jcl40'
p22
aS'jbl93'
p23
aS'jcl86'
p24
aS'right'
p25
aS'jcu75'
p26
aS'jbu95'
p27
aS'jbu27'
p28
aS'jbl54'
p29
aS'jbr49'
p30
aS'jcd44'
p31
aS'jbl21'
p32
aS'jcd7'
p33
aS'jcd4'
p34
aS'jbl87'
p35
aS'left'
p36
aS'jbd40'
p37
aS'jcd15'
p38
aS'down'
p39
aS'jbu41'
p40
aS'jbr62'
p41
ag36
aS'jbl35'
p42
aS'jbd9'
p43
aS'jcu71'
p44
aS'left'
p45
aS'jcr55'
p46
aS'jcl54'
p47
aS'jcr40'
p48
aS'down'
p49
aS'down'
p50
aS'up'
p51
ag51
aS'jbl91'
p52
aS'up'
p53
aS'left'
p54
aS'jcu98'
p55
ag17
aS'down'
p56
aS'left'
p57
aS'jbl71'
p58
aS'jcl44'
p59
aS'jbr64'
p60
ag49
ag36
aS'jbd83'
p61
ag57
ag51
aS'jbd82'
p62
aS'jbl99'
p63
aS'right'
p64
ag64
aS'jcd3'
p65
ag36
aS'jcr87'
p66
ag53
ag36
aS'jcr49'
p67
aS'jbl96'
p68
aS'jbu17'
p69
ag17
aS'jbr49'
p70
ag64
ag56
aS'jcd7'
p71
aS'jbu57'
p72
aS'jcl88'
p73
aS'left'
p74
aS'jbd100'
p75
ag51
aS'jcu17'
p76
aS'jcl83'
p77
ag36
ag51
aS'jbr50'
p78
aS'jbu61'
p79
aS'jcu3'
p80
aS'jbl13'
p81
aS'jcu87'
p82
aS'down'
p83
a.