(lp0
S'left'
p1
aS'up'
p2
aS'jbr18'
p3
aS'jcd59'
p4
aS'jcu34'
p5
aS'jcd17'
p6
aS'jcl85'
p7
aS'jbr43'
p8
aS'jcd6'
p9
aS'jbr84'
p10
aS'right'
p11
aS'jbd95'
p12
aS'jcu50'
p13
aS'jbr69'
p14
ag2
aS'jbd42'
p15
aS'down'
p16
aS'jbu1'
p17
aS'jbd99'
p18
aS'right'
p19
aS'right'
p20
aS'right'
p21
ag2
aS'jbl13'
p22
aS'jcd52'
p23
aS'jcl6'
p24
aS'jbu95'
p25
aS'jcl68'
p26
aS'jbr69'
p27
aS'jcl79'
p28
ag2
aS'jbd76'
p29
aS'jcd48'
p30
aS'down'
p31
aS'jbl87'
p32
aS'jbd84'
p33
ag31
aS'jbr58'
p34
aS'jbu56'
p35
aS'up'
p36
aS'jbr62'
p37
aS'jbr39'
p38
ag31
ag20
aS'jcu71'
p39
aS'left'
p40
ag31
aS'jcl54'
p41
ag19
ag2
aS'down'
p42
aS'jbl25'
p43
ag20
aS'jcu91'
p44
aS'up'
p45
aS'left'
p46
aS'up'
p47
ag31
aS'jcu74'
p48
aS'left'
p49
ag31
aS'jcl27'
p50
aS'jbr64'
p51
ag19
aS'jbd56'
p52
aS'jcr92'
p53
ag31
aS'jbd11'
p54
aS'jbd82'
p55
aS'jcl40'
p56
aS'jcr75'
p57
aS'jbr52'
p58
aS'jbl72'
p59
aS'up'
p60
ag31
ag45
aS'jcd57'
p61
aS'jcd19'
p62
aS'jbd54'
p63
aS'jbr93'
p64
aS'jcr48'
p65
aS'jbr49'
p66
aS'jcd87'
p67
aS'jcr96'
p68
aS'jcd0'
p69
aS'jbu57'
p70
aS'jbr33'
p71
aS'left'
p72
aS'jbl9'
p73
ag19
aS'jcu17'
p74
ag19
aS'jbd86'
p75
aS'jbu92'
p76
ag31
aS'jbd27'
p77
aS'jcr15'
p78
aS'jbl13'
p79
ag42
aS'jcr51'
p80
a.