(lp0
S'jcr98'
p1
aS'jcr69'
p2
aS'jbu37'
p3
aS'jcd48'
p4
aS'right'
p5
aS'jcr88'
p6
aS'jcd97'
p7
aS'down'
p8
aS'right'
p9
aS'jbd11'
p10
aS'jbr76'
p11
aS'jcr81'
p12
aS'up'
p13
aS'jbr69'
p14
aS'jbl28'
p15
aS'jbd42'
p16
aS'down'
p17
aS'jbd84'
p18
aS'jbd99'
p19
aS'left'
p20
ag9
ag8
ag20
aS'jbl13'
p21
ag13
aS'jcl6'
p22
ag5
ag5
aS'jbl54'
p23
aS'jbd84'
p24
aS'right'
p25
aS'jbd81'
p26
aS'jcd7'
p27
aS'jbu71'
p28
ag8
aS'jbr71'
p29
aS'jbl75'
p30
ag8
aS'down'
p31
aS'jbl17'
p32
aS'jcl61'
p33
aS'jbr39'
p34
aS'jbl35'
p35
ag9
aS'jcu71'
p36
aS'jcr21'
p37
aS'jcr96'
p38
aS'jcu97'
p39
aS'jbd55'
p40
aS'jbu65'
p41
aS'down'
p42
aS'jbl25'
p43
aS'jcr80'
p44
aS'jcl78'
p45
aS'up'
p46
aS'left'
p47
aS'up'
p48
ag17
aS'jbu15'
p49
aS'left'
p50
aS'down'
p51
aS'jbr70'
p52
aS'jbl76'
p53
aS'right'
p54
aS'jbl60'
p55
aS'jcr92'
p56
ag50
aS'jbr27'
p57
aS'jbd82'
p58
aS'jcl65'
p59
aS'jbd47'
p60
aS'up'
p61
aS'right'
p62
aS'up'
p63
aS'jcr87'
p64
ag13
ag13
aS'jcd19'
p65
aS'jbl96'
p66
aS'jbl23'
p67
ag17
aS'jbr49'
p68
aS'jbl11'
p69
aS'down'
p70
aS'jbl32'
p71
aS'jbu57'
p72
ag17
aS'left'
p73
aS'jbu34'
p74
aS'jbu63'
p75
aS'jcu17'
p76
aS'jcl83'
p77
aS'jbd42'
p78
ag8
aS'jcl50'
p79
aS'jbl61'
p80
ag20
aS'jbl13'
p81
ag42
aS'down'
p82
a.