(lp0
S'jbr0'
p1
aS'left'
p2
aS'jbu37'
p3
aS'jbr23'
p4
aS'jcu34'
p5
aS'jcr88'
p6
aS'jcl4'
p7
aS'down'
p8
aS'right'
p9
aS'jcr20'
p10
aS'right'
p11
aS'jbd20'
p12
aS'jcu50'
p13
aS'jbr69'
p14
aS'jbu10'
p15
aS'jbu39'
p16
aS'jcd32'
p17
aS'jbd84'
p18
aS'jcr29'
p19
aS'jbu95'
p20
ag2
aS'right'
p21
aS'jcl83'
p22
aS'jbl13'
p23
aS'right'
p24
aS'jcl6'
p25
aS'jbu95'
p26
ag8
ag8
ag2
aS'jbd79'
p27
aS'jcl44'
p28
aS'jbd16'
p29
ag8
aS'jbl68'
p30
aS'jbu66'
p31
aS'jcd3'
p32
aS'jcl45'
p33
aS'down'
p34
aS'up'
p35
aS'jcd16'
p36
aS'jbr39'
p37
aS'jbl35'
p38
aS'right'
p39
aS'jcu71'
p40
aS'jbu59'
p41
aS'jcl98'
p42
aS'jbd1'
p43
aS'jbr11'
p44
ag8
ag2
aS'jcd37'
p45
ag9
aS'jcu91'
p46
aS'jcd47'
p47
ag2
aS'up'
p48
aS'jcu6'
p49
aS'jbl81'
p50
ag2
aS'jbr58'
p51
ag8
aS'jbl99'
p52
ag39
aS'jbu83'
p53
aS'jcr92'
p54
aS'left'
p55
aS'jbr27'
p56
aS'jbd82'
p57
aS'jbu43'
p58
aS'jbd47'
p59
aS'up'
p60
aS'right'
p61
aS'up'
p62
aS'jbu64'
p63
aS'up'
p64
aS'jbd5'
p65
aS'jbl88'
p66
aS'jbl96'
p67
aS'jbr93'
p68
aS'down'
p69
aS'jbr49'
p70
ag2
ag39
aS'jcd7'
p71
aS'jbu57'
p72
ag69
aS'left'
p73
ag55
aS'jcd47'
p74
aS'jbd7'
p75
aS'jbr67'
p76
aS'jbd40'
p77
aS'jbl23'
p78
aS'jbr50'
p79
aS'down'
p80
aS'jcu84'
p81
aS'jbl52'
p82
aS'down'
p83
aS'down'
p84
a.