(lp0
S'down'
p1
aS'jcd48'
p2
aS'jbu37'
p3
aS'jcd48'
p4
aS'jcu34'
p5
aS'jcr88'
p6
aS'jbd3'
p7
ag1
aS'jbr27'
p8
aS'jcu3'
p9
aS'right'
p10
aS'right'
p11
ag11
aS'jbd8'
p12
aS'up'
p13
aS'jbl78'
p14
aS'up'
p15
aS'jbd84'
p16
aS'jbd99'
p17
aS'jcd48'
p18
ag1
aS'right'
p19
aS'left'
p20
aS'jbl13'
p21
aS'right'
p22
ag1
aS'jbu95'
p23
aS'jbu27'
p24
aS'jcl61'
p25
aS'jcl79'
p26
ag20
aS'jcl14'
p27
aS'jbr18'
p28
aS'jcd4'
p29
ag20
aS'jbd84'
p30
aS'jcd14'
p31
aS'jbd75'
p32
aS'down'
p33
aS'up'
p34
aS'jbr62'
p35
aS'jbl49'
p36
aS'jbl35'
p37
ag11
aS'jcu71'
p38
aS'left'
p39
aS'jcl98'
p40
aS'jcl54'
p41
ag11
aS'jcl98'
p42
ag1
aS'jcr40'
p43
aS'right'
p44
aS'jcd24'
p45
aS'jbl25'
p46
aS'right'
p47
aS'jbr45'
p48
aS'up'
p49
aS'left'
p50
aS'jbl82'
p51
aS'down'
p52
aS'jbr56'
p53
aS'left'
p54
aS'down'
p55
aS'jcu71'
p56
aS'jbr64'
p57
aS'right'
p58
aS'jbu25'
p59
aS'jcu68'
p60
aS'jcu52'
p61
aS'jbl16'
p62
aS'jbd82'
p63
aS'jbl70'
p64
aS'jcl17'
p65
ag20
aS'jcr66'
p66
aS'up'
p67
aS'jbr69'
p68
ag49
aS'jcd57'
p69
aS'jcl18'
p70
aS'jbl96'
p71
aS'jbd2'
p72
ag52
aS'jbr49'
p73
aS'jbr83'
p74
aS'jcu43'
p75
ag20
aS'jcl60'
p76
ag20
aS'jcl18'
p77
ag54
aS'jcd47'
p78
aS'jcu94'
p79
aS'jbr50'
p80
aS'jcd56'
p81
aS'jcl42'
p82
aS'jbr39'
p83
aS'jcu91'
p84
ag20
a.