(lp0
S'jbr0'
p1
aS'jcd48'
p2
aS'jbu37'
p3
aS'jcd48'
p4
aS'down'
p5
aS'left'
p6
ag6
aS'jbd1'
p7
aS'jbr81'
p8
aS'jcr98'
p9
aS'jcu3'
p10
aS'jbd95'
p11
aS'jcu43'
p12
aS'jbr69'
p13
aS'jbl6'
p14
aS'jcl74'
p15
ag5
aS'up'
p16
aS'jbd99'
p17
aS'jbl16'
p18
aS'jcd22'
p19
aS'jbd97'
p20
aS'right'
p21
aS'jbu73'
p22
aS'jcu50'
p23
aS'jcu79'
p24
ag5
aS'jbu27'
p25
aS'jbl54'
p26
aS'jcl79'
p27
aS'right'
p28
aS'jbd6'
p29
aS'jbl67'
p30
aS'jcd4'
p31
aS'jbr42'
p32
aS'jbd84'
p33
aS'jbl75'
p34
aS'jbu80'
p35
aS'jcd89'
p36
aS'jbr17'
p37
aS'jbr62'
p38
ag21
aS'jbl35'
p39
aS'jbl33'
p40
aS'jbr55'
p41
aS'left'
p42
aS'jcd61'
p43
ag5
aS'jcr40'
p44
aS'right'
p45
aS'jbd19'
p46
aS'jbl25'
p47
aS'right'
p48
aS'jcu91'
p49
aS'up'
p50
aS'left'
p51
ag6
aS'jbu28'
p52
aS'down'
p53
aS'left'
p54
aS'jcd78'
p55
aS'jcd35'
p56
aS'jbr64'
p57
aS'right'
p58
aS'jcu32'
p59
aS'jcr92'
p60
ag54
ag5
ag5
aS'jbl99'
p61
aS'jbd47'
p62
aS'up'
p63
aS'right'
p64
aS'up'
p65
ag16
ag50
aS'jcl6'
p66
aS'jcd19'
p67
aS'jbl96'
p68
aS'jcl42'
p69
aS'down'
p70
aS'jcr12'
p71
ag5
ag53
ag6
aS'jbu57'
p72
ag70
aS'jcr98'
p73
ag54
aS'jcr81'
p74
aS'jcu17'
p75
aS'jcu40'
p76
aS'jcl54'
p77
aS'jcu94'
p78
ag16
aS'down'
p79
aS'jbd25'
p80
aS'jbl13'
p81
aS'down'
p82
aS'down'
p83
a.