(lp0
S'jbu23'
p1
aS'jcl82'
p2
aS'jbd27'
p3
aS'jcd31'
p4
aS'jcu34'
p5
aS'jbr67'
p6
aS'jcl85'
p7
aS'up'
p8
aS'right'
p9
aS'jcr20'
p10
aS'jbu93'
p11
aS'jbd95'
p12
aS'jcl40'
p13
aS'jbl87'
p14
aS'up'
p15
aS'down'
p16
aS'jbl94'
p17
aS'jcd74'
p18
aS'jbd99'
p19
aS'jbl16'
p20
ag9
aS'right'
p21
aS'down'
p22
aS'jbl49'
p23
aS'right'
p24
aS'jcl6'
p25
aS'jcd100'
p26
aS'jbu27'
p27
aS'jbl54'
p28
aS'jcl79'
p29
aS'jcd26'
p30
ag16
aS'jcd7'
p31
aS'jbr77'
p32
aS'jbl87'
p33
aS'left'
p34
aS'jcl12'
p35
aS'jbl98'
p36
aS'jbl44'
p37
aS'up'
p38
aS'jbr80'
p39
aS'jbr39'
p40
aS'jbl35'
p41
aS'jcu94'
p42
aS'jbd34'
p43
aS'left'
p44
aS'jcl98'
p45
aS'jcl54'
p46
aS'jcr40'
p47
aS'jcd17'
p48
aS'jcu95'
p49
aS'jbl25'
p50
ag9
aS'jcu91'
p51
ag8
aS'left'
p52
aS'up'
p53
aS'down'
p54
aS'jbd65'
p55
aS'left'
p56
aS'down'
p57
aS'down'
p58
aS'jbr64'
p59
aS'right'
p60
aS'jcu57'
p61
aS'jcr92'
p62
aS'jcd26'
p63
aS'jbl16'
p64
aS'jcu62'
p65
aS'jbl99'
p66
aS'jbd47'
p67
ag15
aS'right'
p68
aS'jbl54'
p69
aS'jcr87'
p70
ag8
aS'jcd57'
p71
aS'jcd19'
p72
aS'jcr11'
p73
aS'jbd4'
p74
aS'jbu84'
p75
aS'jbr49'
p76
aS'jbd35'
p77
ag58
ag8
aS'jbu57'
p78
ag54
aS'left'
p79
ag56
aS'jcd47'
p80
aS'jcu17'
p81
ag8
aS'right'
p82
aS'jcu94'
p83
aS'jcu24'
p84
aS'down'
p85
aS'jcu41'
p86
ag16
aS'down'
p87
aS'jcd15'
p88
a.