(lp0
S'jbr0'
p1
aS'jcd48'
p2
aS'jbl11'
p3
aS'jcd48'
p4
aS'jcu34'
p5
aS'jcr88'
p6
aS'jcl85'
p7
aS'right'
p8
aS'right'
p9
aS'jbd14'
p10
aS'jcd75'
p11
aS'jcr29'
p12
aS'jcu50'
p13
aS'jbr69'
p14
ag8
aS'jbd42'
p15
aS'down'
p16
aS'jbd84'
p17
aS'jbd59'
p18
aS'down'
p19
ag19
aS'right'
p20
aS'down'
p21
aS'jbl13'
p22
aS'right'
p23
aS'jbr93'
p24
aS'jcl23'
p25
aS'jcu36'
p26
aS'jbr72'
p27
aS'up'
p28
aS'right'
p29
aS'jcl44'
p30
aS'jcd7'
p31
aS'jcd4'
p32
aS'jbu87'
p33
aS'jbd84'
p34
aS'jcu28'
p35
aS'jcr28'
p36
aS'down'
p37
aS'jbl64'
p38
aS'jbr62'
p39
aS'jbr82'
p40
aS'jcd67'
p41
ag9
aS'jcu71'
p42
aS'left'
p43
aS'jcr17'
p44
aS'jcl54'
p45
ag28
ag8
aS'jcu0'
p46
aS'jbl25'
p47
ag9
aS'jcu91'
p48
aS'jbl86'
p49
ag19
aS'jcl67'
p50
aS'jcr66'
p51
aS'down'
p52
aS'jbl55'
p53
aS'jbd99'
p54
ag52
aS'jcl36'
p55
ag8
aS'jcu32'
p56
aS'jbu85'
p57
aS'jbr86'
p58
aS'jbr27'
p59
aS'jbr63'
p60
aS'jbl99'
p61
aS'left'
p62
aS'jcd18'
p63
aS'jbr16'
p64
aS'up'
p65
aS'jcr87'
p66
ag19
ag19
aS'jcu8'
p67
ag19
aS'jcr51'
p68
ag16
aS'jcd84'
p69
aS'jcd87'
p70
ag8
aS'jcd7'
p71
aS'jbu57'
p72
ag16
aS'jbl84'
p73
ag8
aS'jcd47'
p74
aS'jcu17'
p75
ag19
aS'jbd43'
p76
aS'jcr95'
p77
aS'jbr50'
p78
aS'jcu62'
p79
aS'jcl42'
p80
aS'jbl13'
p81
aS'jbu26'
p82
aS'jbr49'
p83
a.