(lp0
S'jbr0'
p1
aS'jcd48'
p2
aS'down'
p3
aS'jbl73'
p4
aS'jbu73'
p5
aS'jcr88'
p6
aS'jbu18'
p7
aS'jbr43'
p8
aS'jbd27'
p9
aS'jcd38'
p10
aS'jcl65'
p11
aS'up'
p12
aS'jcu23'
p13
ag3
aS'right'
p14
ag14
aS'down'
p15
aS'jbd29'
p16
ag3
aS'left'
p17
aS'jcd39'
p18
aS'right'
p19
ag17
aS'jbl13'
p20
aS'right'
p21
ag12
aS'jbu95'
p22
aS'jbu27'
p23
ag3
aS'jcl79'
p24
aS'jcr15'
p25
aS'jcl44'
p26
aS'jcd7'
p27
aS'jcd4'
p28
aS'jbl87'
p29
aS'jbd84'
p30
aS'jbl75'
p31
aS'jcu11'
p32
aS'jcu7'
p33
ag12
aS'jcr13'
p34
aS'jcl57'
p35
aS'jbl35'
p36
aS'right'
p37
aS'jcu71'
p38
aS'left'
p39
ag17
ag12
aS'jcr40'
p40
aS'jbr29'
p41
aS'down'
p42
aS'jbl25'
p43
aS'jbl19'
p44
aS'jcr95'
p45
aS'up'
p46
aS'left'
p47
aS'up'
p48
aS'jbl65'
p49
aS'down'
p50
ag3
aS'down'
p51
ag12
aS'jbr64'
p52
aS'right'
p53
aS'jcd30'
p54
aS'jbl59'
p55
aS'jcl31'
p56
ag12
aS'jbd82'
p57
aS'jcl54'
p58
aS'jbd47'
p59
ag12
aS'right'
p60
aS'up'
p61
aS'jcr87'
p62
ag46
aS'jcd57'
p63
aS'jcd19'
p64
ag17
aS'jcr29'
p65
ag15
aS'jcd68'
p66
aS'jbr2'
p67
ag50
ag17
aS'jbu57'
p68
ag15
aS'jbr48'
p69
ag12
aS'jcd47'
p70
aS'jbd78'
p71
aS'jcl83'
p72
aS'jcl54'
p73
aS'jbr60'
p74
aS'jcr19'
p75
ag14
aS'jcd35'
p76
aS'jbl13'
p77
aS'jcd11'
p78
aS'jcr60'
p79
a.