(lp0
S'jcu54'
p1
aS'jcd48'
p2
aS'jcu76'
p3
aS'jbr52'
p4
aS'jcr46'
p5
aS'jcr88'
p6
aS'up'
p7
aS'jbr43'
p8
aS'right'
p9
ag7
ag7
aS'jcd23'
p10
aS'left'
p11
aS'right'
p12
aS'up'
p13
ag7
ag7
aS'jbu65'
p14
aS'jbd24'
p15
aS'jbu60'
p16
aS'jbu52'
p17
aS'right'
p18
aS'down'
p19
aS'jbl13'
p20
ag7
aS'jcd10'
p21
ag7
aS'jbu27'
p22
aS'jbl54'
p23
aS'jcu96'
p24
ag11
aS'jbu20'
p25
aS'jcd7'
p26
aS'jbr53'
p27
aS'jbl87'
p28
aS'jbl40'
p29
aS'jcl47'
p30
aS'left'
p31
aS'down'
p32
aS'jcu15'
p33
aS'jbr62'
p34
aS'jbr39'
p35
aS'jcu83'
p36
aS'jbr9'
p37
aS'jbl78'
p38
ag12
aS'jcl98'
p39
aS'jcd29'
p40
aS'jcr40'
p41
aS'down'
p42
aS'down'
p43
aS'jbr83'
p44
aS'jbu14'
p45
aS'jcd58'
p46
aS'up'
p47
ag31
aS'up'
p48
aS'jbd18'
p49
aS'down'
p50
aS'left'
p51
ag11
aS'jcu77'
p52
ag12
aS'jbr54'
p53
aS'jcu32'
p54
ag11
ag51
aS'jbr27'
p55
aS'jbd82'
p56
aS'jbl99'
p57
aS'jbd47'
p58
aS'jcd82'
p59
aS'right'
p60
aS'jbu36'
p61
aS'jcr87'
p62
ag47
aS'jbl23'
p63
aS'jcu79'
p64
aS'jbr73'
p65
ag12
aS'down'
p66
aS'jbr49'
p67
aS'jcd87'
p68
ag50
aS'jbr79'
p69
aS'jbu98'
p70
ag66
ag7
ag51
aS'jcd47'
p71
aS'jcd19'
p72
aS'jbd25'
p73
aS'jcl54'
p74
aS'jcu94'
p75
aS'jcl51'
p76
aS'jcu20'
p77
aS'jbr68'
p78
aS'jbd42'
p79
ag43
aS'down'
p80
a.