(lp0
S'jbr0'
p1
aS'jcd48'
p2
aS'jbu7'
p3
aS'jcd48'
p4
aS'jbu11'
p5
aS'jcr88'
p6
aS'jbr20'
p7
aS'up'
p8
aS'right'
p9
aS'jcr20'
p10
ag8
aS'jbd95'
p11
aS'jbd47'
p12
aS'jbu87'
p13
aS'up'
p14
aS'jbd42'
p15
aS'down'
p16
aS'jbd84'
p17
aS'jbr66'
p18
aS'left'
p19
aS'jbu73'
p20
aS'jbd84'
p21
ag19
aS'down'
p22
aS'jbu96'
p23
aS'jbu92'
p24
aS'jcd53'
p25
aS'right'
p26
aS'jbl54'
p27
aS'jbl98'
p28
aS'right'
p29
aS'jcl44'
p30
aS'jcd7'
p31
aS'jcr91'
p32
ag22
ag22
ag8
aS'left'
p33
aS'jcu73'
p34
ag19
aS'jbu60'
p35
aS'jcl52'
p36
aS'jbu58'
p37
ag9
aS'jcr17'
p38
aS'left'
p39
aS'jcr72'
p40
aS'jcl54'
p41
aS'jcr40'
p42
aS'right'
p43
ag22
aS'jbl25'
p44
ag9
aS'jcu91'
p45
aS'jbd48'
p46
ag33
aS'up'
p47
ag16
aS'jbd40'
p48
aS'jbl46'
p49
aS'down'
p50
aS'down'
p51
aS'jbr64'
p52
aS'right'
p53
aS'jcd24'
p54
aS'jcr92'
p55
aS'left'
p56
aS'jbd30'
p57
ag19
aS'jbl99'
p58
aS'jbu46'
p59
ag14
aS'right'
p60
aS'up'
p61
aS'jcr87'
p62
aS'up'
p63
aS'jcd57'
p64
aS'jcd75'
p65
aS'jbu42'
p66
aS'jbr93'
p67
aS'jcr90'
p68
aS'jbr49'
p69
aS'jbl20'
p70
ag51
ag8
aS'jbu57'
p71
aS'jbr31'
p72
aS'left'
p73
aS'jcd46'
p74
aS'jcd47'
p75
aS'jcu17'
p76
aS'jcl83'
p77
aS'jcr10'
p78
aS'jbu68'
p79
aS'jbr50'
p80
aS'jbu94'
p81
aS'jcl42'
p82
aS'jbl13'
p83
aS'down'
p84
ag19
a.