(lp0
S'jbr0'
p1
aS'jcu11'
p2
aS'down'
p3
aS'right'
p4
aS'jcu34'
p5
aS'jcr88'
p6
aS'jcl85'
p7
aS'jbr43'
p8
aS'jbl9'
p9
aS'jbr79'
p10
aS'left'
p11
ag11
aS'jcu50'
p12
aS'jbr69'
p13
aS'jbr31'
p14
aS'jbd42'
p15
ag4
aS'jbd84'
p16
aS'jbd99'
p17
aS'jbd49'
p18
aS'right'
p19
ag11
aS'down'
p20
aS'jcl26'
p21
aS'right'
p22
aS'jcl6'
p23
ag3
aS'jbd14'
p24
ag4
ag11
aS'jbl41'
p25
aS'jcl44'
p26
ag4
aS'jcr16'
p27
aS'jbl87'
p28
aS'jbl99'
p29
aS'jbl75'
p30
aS'left'
p31
aS'jbr85'
p32
ag4
aS'jbr62'
p33
aS'jcd19'
p34
aS'jcd87'
p35
aS'jcu1'
p36
aS'jcu71'
p37
ag4
aS'jcl27'
p38
aS'up'
p39
aS'down'
p40
aS'jcd21'
p41
ag3
ag40
aS'jbr64'
p42
aS'jcr94'
p43
aS'jcd25'
p44
aS'jbr48'
p45
aS'left'
p46
ag3
aS'jbd82'
p47
ag4
aS'jbu73'
p48
aS'jbd75'
p49
aS'jbr64'
p50
aS'jbu92'
p51
aS'jcu32'
p52
aS'jbl94'
p53
aS'left'
p54
aS'jbu74'
p55
aS'jbd82'
p56
ag4
aS'jbd47'
p57
aS'up'
p58
aS'right'
p59
aS'up'
p60
aS'jcr87'
p61
aS'jcu19'
p62
aS'jcd57'
p63
aS'jbu48'
p64
aS'jcu44'
p65
aS'jbr93'
p66
aS'jcl47'
p67
aS'jbr49'
p68
aS'jbl87'
p69
ag3
ag4
aS'jbu57'
p70
aS'jcu9'
p71
aS'left'
p72
ag4
aS'jbu58'
p73
aS'jcu14'
p74
aS'jbr73'
p75
ag4
aS'jcu94'
p76
aS'jbr50'
p77
aS'down'
p78
aS'jbl15'
p79
ag11
ag11
ag39
a.