(lp0
S'down'
p1
aS'jcd48'
p2
aS'right'
p3
aS'jbl95'
p4
aS'jcu34'
p5
aS'jcr88'
p6
aS'jcr17'
p7
aS'jbr43'
p8
aS'jbr59'
p9
aS'up'
p10
aS'right'
p11
aS'jcd16'
p12
aS'jcu50'
p13
aS'jbr69'
p14
ag3
aS'jbu95'
p15
aS'left'
p16
aS'jcl92'
p17
aS'jbr17'
p18
aS'jbu8'
p19
aS'right'
p20
ag16
ag16
aS'jcl35'
p21
ag16
aS'jcl6'
p22
aS'jbu75'
p23
aS'jcu43'
p24
aS'jbl54'
p25
aS'jcl56'
p26
ag3
aS'jcl44'
p27
aS'jcd7'
p28
ag10
aS'jbl87'
p29
aS'jbd84'
p30
aS'jbl75'
p31
aS'left'
p32
aS'jbl56'
p33
aS'up'
p34
aS'jbr62'
p35
aS'jbr39'
p36
aS'jbl35'
p37
ag20
ag10
ag16
aS'jcl98'
p38
aS'jbu82'
p39
ag16
aS'jcl94'
p40
aS'jcd23'
p41
aS'jbl25'
p42
ag3
aS'jbd30'
p43
aS'up'
p44
ag1
ag3
aS'jcu89'
p45
ag10
aS'left'
p46
aS'jcr52'
p47
aS'jbl16'
p48
aS'jbr64'
p49
ag10
ag3
aS'jcl55'
p50
ag16
aS'jbr27'
p51
ag16
aS'jbl99'
p52
aS'jbd47'
p53
ag1
aS'jcr81'
p54
aS'up'
p55
aS'jcr87'
p56
aS'jcr9'
p57
aS'jbl65'
p58
ag16
aS'jbl96'
p59
aS'jbr93'
p60
aS'jcr52'
p61
ag10
aS'jcd87'
p62
aS'down'
p63
aS'jcd7'
p64
aS'jcl29'
p65
aS'jbd22'
p66
aS'left'
p67
ag46
aS'jcd47'
p68
ag3
aS'jcl83'
p69
aS'jcl59'
p70
ag3
ag10
ag3
aS'jcl42'
p71
aS'jbl13'
p72
aS'jbu42'
p73
aS'down'
p74
a.