(lp0
S'jcr86'
p1
aS'jcd95'
p2
aS'down'
p3
aS'jcd48'
p4
aS'jcu34'
p5
aS'jcr88'
p6
aS'jbu37'
p7
ag3
aS'right'
p8
aS'jbu53'
p9
aS'jcl97'
p10
aS'jcr31'
p11
aS'jcu50'
p12
aS'jbr69'
p13
aS'jcd18'
p14
aS'left'
p15
aS'down'
p16
aS'jbr81'
p17
aS'jbd56'
p18
aS'jbl16'
p19
ag8
aS'right'
p20
aS'jbr94'
p21
aS'jbl13'
p22
aS'right'
p23
aS'jcl6'
p24
aS'jbu95'
p25
aS'jbl83'
p26
aS'jbl54'
p27
aS'jcl79'
p28
aS'right'
p29
aS'jcl44'
p30
aS'jcd7'
p31
aS'jcd24'
p32
ag15
aS'jbd84'
p33
aS'jbl75'
p34
aS'up'
p35
aS'down'
p36
aS'up'
p37
ag3
aS'jbr39'
p38
aS'jbd79'
p39
aS'jcd40'
p40
ag35
aS'jbd7'
p41
ag35
aS'jcu96'
p42
aS'jcl11'
p43
ag20
aS'down'
p44
aS'jbl25'
p45
ag23
aS'jcu91'
p46
aS'jcd100'
p47
aS'left'
p48
aS'jbr99'
p49
ag35
aS'jcu75'
p50
aS'jbr32'
p51
aS'jcl56'
p52
ag3
aS'jbr64'
p53
aS'jbl98'
p54
aS'jcu23'
p55
aS'jcd54'
p56
aS'jcl12'
p57
ag23
aS'jbd82'
p58
ag3
aS'jbl8'
p59
aS'jcr26'
p60
aS'right'
p61
ag23
aS'jcr87'
p62
ag35
aS'jbd61'
p63
aS'jcd19'
p64
aS'jbl96'
p65
aS'jbr93'
p66
ag16
ag23
aS'jcd87'
p67
aS'jcl89'
p68
aS'jcd7'
p69
aS'jbu57'
p70
ag3
aS'jbd87'
p71
aS'left'
p72
aS'jcd47'
p73
aS'jbd94'
p74
aS'jbu57'
p75
aS'jcl74'
p76
ag15
aS'jbr50'
p77
aS'jcr2'
p78
aS'jcl42'
p79
aS'jbl13'
p80
ag44
aS'jcr81'
p81
a.