(lp0
S'jbr0'
p1
aS'jbu76'
p2
aS'down'
p3
aS'left'
p4
aS'jcu34'
p5
aS'jcd40'
p6
aS'jcl85'
p7
aS'jbr43'
p8
ag3
aS'right'
p9
aS'jcd59'
p10
aS'jcl31'
p11
aS'jcu50'
p12
aS'jbr69'
p13
aS'jbl56'
p14
aS'jcl91'
p15
aS'jcd35'
p16
aS'jcu63'
p17
aS'jbd99'
p18
aS'jcr17'
p19
aS'right'
p20
aS'right'
p21
ag9
aS'jcu40'
p22
aS'jcu46'
p23
aS'jcl6'
p24
aS'jbu95'
p25
aS'jbu27'
p26
aS'jbd6'
p27
aS'jcl79'
p28
aS'jbd60'
p29
aS'up'
p30
aS'jbr17'
p31
ag9
aS'jbd49'
p32
aS'jbd84'
p33
aS'jbl85'
p34
aS'left'
p35
aS'down'
p36
aS'jbr90'
p37
aS'jbr62'
p38
aS'jbr39'
p39
aS'jbl35'
p40
ag30
aS'jcu71'
p41
aS'left'
p42
aS'jcl98'
p43
ag9
aS'jcr40'
p44
aS'jbr58'
p45
aS'jcr62'
p46
aS'jcl45'
p47
aS'jbr65'
p48
aS'jcu8'
p49
aS'up'
p50
ag30
aS'up'
p51
ag3
aS'down'
p52
aS'jbr84'
p53
ag3
ag52
aS'jbr64'
p54
aS'right'
p55
aS'jbr60'
p56
aS'jcr92'
p57
aS'left'
p58
ag4
aS'jcr0'
p59
ag9
aS'jbd47'
p60
ag9
aS'jcl8'
p61
aS'up'
p62
aS'jbd27'
p63
ag50
aS'jcu97'
p64
aS'jcd19'
p65
aS'jbl96'
p66
aS'jbd48'
p67
aS'jcd38'
p68
aS'jbl62'
p69
aS'jcu16'
p70
ag52
ag30
ag9
aS'down'
p71
aS'jcu69'
p72
ag58
ag9
aS'jcu17'
p73
aS'jcr80'
p74
aS'jcl54'
p75
aS'jbr64'
p76
aS'jcl64'
p77
aS'down'
p78
ag4
ag30
aS'jcr11'
p79
aS'down'
p80
a.