(lp0
S'jbr0'
p1
aS'jcd48'
p2
aS'right'
p3
aS'jbl58'
p4
aS'jcu34'
p5
aS'jcd89'
p6
aS'jcl85'
p7
aS'jbr43'
p8
aS'right'
p9
aS'down'
p10
aS'right'
p11
aS'jcu4'
p12
aS'left'
p13
aS'jcu37'
p14
aS'jbr37'
p15
aS'jcr50'
p16
ag13
aS'jbd84'
p17
aS'jbd36'
p18
aS'jcu52'
p19
aS'jcd15'
p20
aS'right'
p21
ag3
aS'jcr15'
p22
ag3
aS'jcl6'
p23
aS'jbu37'
p24
aS'jbu27'
p25
aS'jcl36'
p26
aS'up'
p27
aS'right'
p28
aS'jcl62'
p29
ag27
aS'jcd4'
p30
ag10
aS'jbd84'
p31
aS'jcl84'
p32
aS'jbr7'
p33
aS'jbd9'
p34
aS'jcd46'
p35
ag13
aS'jcl73'
p36
aS'jbu8'
p37
aS'jcr100'
p38
aS'jcu71'
p39
aS'jcr82'
p40
aS'jcl98'
p41
aS'jcl54'
p42
aS'jcr40'
p43
aS'jbu54'
p44
aS'jbd2'
p45
aS'jcu64'
p46
ag9
aS'jcu91'
p47
aS'up'
p48
aS'left'
p49
aS'up'
p50
ag27
aS'jbl74'
p51
ag13
ag27
aS'down'
p52
aS'jbu32'
p53
aS'right'
p54
ag3
aS'jcr92'
p55
ag27
aS'jbr27'
p56
aS'jcu10'
p57
aS'jbl86'
p58
aS'jbr30'
p59
aS'jbd20'
p60
aS'right'
p61
aS'up'
p62
aS'jbu96'
p63
aS'jcd71'
p64
aS'jbl63'
p65
aS'jbl51'
p66
aS'jbl96'
p67
aS'jcl70'
p68
aS'down'
p69
aS'jbl67'
p70
ag3
aS'jbd61'
p71
aS'jcd7'
p72
aS'jbd45'
p73
ag69
ag10
aS'jbr24'
p74
aS'jcd47'
p75
aS'jcu17'
p76
aS'jbr66'
p77
aS'jcl54'
p78
aS'jcu94'
p79
aS'jbr50'
p80
aS'down'
p81
ag3
aS'jbl13'
p82
aS'jcl10'
p83
aS'jcl77'
p84
a.