(lp0
S'jbl1'
p1
aS'jbr54'
p2
aS'jbu100'
p3
aS'left'
p4
aS'jcu34'
p5
aS'jcr88'
p6
aS'up'
p7
aS'jcr33'
p8
aS'jcu81'
p9
aS'jcr20'
p10
aS'down'
p11
aS'jbd95'
p12
aS'jcu64'
p13
ag7
aS'jcl98'
p14
aS'jcl75'
p15
aS'jbd92'
p16
aS'jbl40'
p17
aS'jcl46'
p18
aS'jcu27'
p19
aS'right'
p20
aS'jcd87'
p21
aS'down'
p22
aS'jcl34'
p23
aS'right'
p24
aS'jcl6'
p25
ag11
aS'jcl34'
p26
aS'right'
p27
aS'jcl91'
p28
aS'right'
p29
ag4
aS'jcd7'
p30
aS'jcd4'
p31
aS'jbl87'
p32
aS'jbd84'
p33
aS'jbl63'
p34
aS'left'
p35
aS'down'
p36
aS'up'
p37
aS'jbr62'
p38
aS'jbu48'
p39
aS'jbl35'
p40
ag4
aS'jcu71'
p41
aS'jcl20'
p42
aS'jcl98'
p43
aS'jbl82'
p44
aS'jcr40'
p45
aS'jcr6'
p46
aS'down'
p47
ag27
aS'jbl42'
p48
aS'jcu91'
p49
aS'up'
p50
ag35
aS'jbl10'
p51
aS'jcr29'
p52
aS'down'
p53
aS'jbl0'
p54
ag7
ag7
aS'jbr64'
p55
aS'right'
p56
aS'jcu32'
p57
aS'jbl66'
p58
aS'jcr78'
p59
ag27
aS'jbd82'
p60
aS'jcd53'
p61
aS'jcr81'
p62
ag7
aS'jcl18'
p63
aS'up'
p64
ag7
ag50
aS'jcd57'
p65
ag11
ag27
aS'jbd12'
p66
aS'down'
p67
aS'jbu59'
p68
aS'jcr93'
p69
ag53
aS'jcd12'
p70
aS'jcu99'
p71
aS'jbu49'
p72
aS'jbd30'
p73
ag4
aS'jbu46'
p74
aS'jcu17'
p75
ag27
aS'jcl54'
p76
ag4
aS'jbr50'
p77
aS'jcl53'
p78
aS'jbu63'
p79
aS'jbl13'
p80
ag47
aS'down'
p81
a.