(lp0
S'jbr0'
p1
aS'left'
p2
aS'up'
p3
aS'jcd48'
p4
aS'jbl30'
p5
aS'jbu72'
p6
aS'jbu34'
p7
aS'jcl43'
p8
aS'right'
p9
aS'jcr20'
p10
aS'jbu86'
p11
aS'down'
p12
ag3
aS'jcl98'
p13
ag2
aS'jcr33'
p14
ag3
ag12
aS'down'
p15
aS'jbl25'
p16
aS'jbd35'
p17
aS'jcu91'
p18
aS'jcr19'
p19
aS'left'
p20
aS'up'
p21
ag12
aS'down'
p22
ag2
aS'jbl17'
p23
aS'jbl43'
p24
aS'jbr64'
p25
aS'right'
p26
aS'jbd18'
p27
aS'jcr92'
p28
aS'left'
p29
aS'jbr27'
p30
aS'jbd82'
p31
aS'jbl99'
p32
aS'right'
p33
ag33
aS'right'
p34
ag33
aS'jcu70'
p35
ag3
ag2
aS'jcd91'
p36
aS'jbu99'
p37
aS'jcl54'
p38
aS'jcr40'
p39
aS'right'
p40
aS'down'
p41
aS'jbl25'
p42
ag33
aS'jbu7'
p43
aS'jcd92'
p44
ag3
ag2
aS'jbu93'
p45
aS'jcr76'
p46
aS'jbu38'
p47
aS'down'
p48
aS'jcd74'
p49
aS'jcr66'
p50
aS'jbd99'
p51
aS'jcu32'
p52
aS'jcr92'
p53
ag12
aS'jbl93'
p54
ag2
aS'jbl99'
p55
aS'jbr90'
p56
ag2
aS'right'
p57
aS'jcr76'
p58
ag3
aS'jbu8'
p59
aS'jbl29'
p60
aS'jcu33'
p61
ag3
aS'jbd56'
p62
aS'down'
p63
aS'jbr49'
p64
aS'jcd37'
p65
aS'jcu91'
p66
aS'jcd25'
p67
aS'jbu100'
p68
ag63
aS'left'
p69
aS'jbu26'
p70
aS'jcd47'
p71
aS'jbd1'
p72
aS'jcl83'
p73
aS'jcl54'
p74
aS'jcd48'
p75
aS'jbr50'
p76
aS'down'
p77
aS'jbr12'
p78
aS'jbl13'
p79
ag2
ag12
a.