(lp0
S'jbr0'
p1
aS'jbu85'
p2
aS'jbu37'
p3
aS'jcd48'
p4
aS'jcu34'
p5
aS'jcu70'
p6
aS'jbl48'
p7
aS'jbr43'
p8
aS'right'
p9
aS'up'
p10
ag10
aS'jbd68'
p11
aS'jbl61'
p12
aS'right'
p13
ag13
aS'jcr52'
p14
aS'jcr40'
p15
ag13
aS'right'
p16
aS'jcr100'
p17
aS'right'
p18
aS'down'
p19
aS'jcu50'
p20
ag13
aS'jbr20'
p21
aS'jbd42'
p22
aS'jbu24'
p23
aS'jbd84'
p24
aS'jbd99'
p25
aS'jbl16'
p26
ag16
aS'right'
p27
aS'down'
p28
aS'jbl21'
p29
aS'jbl47'
p30
aS'jcr7'
p31
aS'jbu95'
p32
aS'jbu27'
p33
aS'jbl54'
p34
aS'jbu23'
p35
ag10
aS'jbr93'
p36
aS'jbu84'
p37
aS'jcd4'
p38
aS'jbl87'
p39
aS'jbd84'
p40
aS'left'
p41
aS'jcu57'
p42
aS'jcr63'
p43
aS'jbr37'
p44
aS'jcl21'
p45
aS'jbl25'
p46
aS'jbr32'
p47
aS'jcu91'
p48
aS'up'
p49
aS'left'
p50
aS'up'
p51
aS'down'
p52
aS'jcu4'
p53
aS'left'
p54
aS'down'
p55
aS'down'
p56
aS'jbr64'
p57
aS'jbr78'
p58
aS'jcu32'
p59
aS'jcr92'
p60
aS'jcd67'
p61
aS'jbr27'
p62
ag19
aS'jcr84'
p63
aS'jcd82'
p64
ag10
aS'right'
p65
aS'up'
p66
aS'jcr87'
p67
aS'jcu50'
p68
aS'jbd79'
p69
aS'jcl57'
p70
ag10
ag41
aS'jbd85'
p71
aS'jbr76'
p72
aS'jcu13'
p73
ag10
aS'jcd7'
p74
aS'jbu57'
p75
ag52
aS'left'
p76
ag41
ag10
aS'jcu17'
p77
aS'jcl83'
p78
ag13
ag13
aS'jbl65'
p79
aS'jcu62'
p80
aS'jcr52'
p81
aS'jbl13'
p82
aS'down'
p83
aS'jbu96'
p84
a.