(lp0
S'jbr0'
p1
aS'jbl76'
p2
aS'down'
p3
aS'jcl62'
p4
aS'jcu34'
p5
aS'jcr88'
p6
aS'left'
p7
aS'jbr43'
p8
aS'right'
p9
aS'jbl56'
p10
aS'right'
p11
aS'jbd95'
p12
aS'jcu50'
p13
aS'jbr69'
p14
aS'up'
p15
aS'jbd42'
p16
aS'down'
p17
aS'jbd84'
p18
aS'jcr36'
p19
aS'up'
p20
aS'jbr100'
p21
aS'right'
p22
aS'jbr21'
p23
aS'jbd14'
p24
aS'right'
p25
aS'jcl6'
p26
aS'jbu95'
p27
aS'jbu27'
p28
aS'jbl54'
p29
aS'jcl79'
p30
aS'right'
p31
aS'jcl44'
p32
ag7
aS'jbu33'
p33
ag7
aS'jbu44'
p34
ag31
aS'jbd24'
p35
aS'down'
p36
aS'up'
p37
ag20
aS'jbl8'
p38
ag20
aS'jbd75'
p39
aS'jcu71'
p40
ag3
aS'jcl98'
p41
aS'jcl54'
p42
aS'jcr40'
p43
aS'jbl16'
p44
aS'down'
p45
aS'jbl25'
p46
ag7
aS'jcu91'
p47
aS'jcd3'
p48
aS'jcr99'
p49
aS'up'
p50
ag17
aS'jcu8'
p51
ag3
aS'jcr89'
p52
aS'jbl92'
p53
aS'jbr64'
p54
ag7
aS'jcd94'
p55
ag20
aS'left'
p56
aS'jbr95'
p57
aS'jbd82'
p58
aS'jbl99'
p59
aS'jbd47'
p60
aS'jbl96'
p61
aS'jcl19'
p62
aS'up'
p63
aS'jcr87'
p64
aS'jcd6'
p65
ag7
aS'jcd19'
p66
ag31
aS'jcl85'
p67
aS'jbl21'
p68
aS'jcd75'
p69
ag31
aS'down'
p70
aS'jcd7'
p71
aS'jbu24'
p72
aS'jbu4'
p73
ag31
ag20
aS'jcd47'
p74
aS'jbd53'
p75
aS'jcl83'
p76
aS'jcl54'
p77
aS'jbd43'
p78
ag3
aS'down'
p79
aS'jbr7'
p80
aS'jbl13'
p81
aS'jcu95'
p82
ag3
a.