(lp0
S'jbd9'
p1
aS'jcl13'
p2
aS'jbu37'
p3
aS'jcd48'
p4
aS'jbr68'
p5
aS'jcl63'
p6
aS'jcd2'
p7
aS'jbr43'
p8
aS'left'
p9
aS'down'
p10
aS'right'
p11
aS'jbd95'
p12
aS'jbl76'
p13
aS'jcu68'
p14
aS'up'
p15
aS'jbd42'
p16
aS'up'
p17
aS'jbl51'
p18
aS'right'
p19
aS'jbl16'
p20
aS'right'
p21
aS'right'
p22
aS'jbr67'
p23
aS'jbl13'
p24
aS'right'
p25
aS'jcu1'
p26
aS'jbu95'
p27
aS'jbu67'
p28
aS'jbl54'
p29
aS'jcu58'
p30
aS'right'
p31
aS'jbu5'
p32
aS'jcd7'
p33
aS'jcd4'
p34
ag17
aS'jbu67'
p35
aS'jbd74'
p36
aS'left'
p37
ag10
aS'up'
p38
aS'jbr62'
p39
aS'jbr39'
p40
aS'jcr38'
p41
ag21
aS'jbd5'
p42
aS'jbu34'
p43
aS'jcl98'
p44
aS'jbu68'
p45
aS'jcr40'
p46
aS'jcr69'
p47
ag17
aS'jcr58'
p48
ag21
aS'jbl8'
p49
aS'jcl66'
p50
aS'jcr54'
p51
ag10
aS'jcr35'
p52
aS'down'
p53
aS'jbr99'
p54
aS'jbd28'
p55
ag53
aS'jbr64'
p56
aS'jcr65'
p57
aS'jcl29'
p58
ag10
aS'left'
p59
ag10
aS'jcl91'
p60
ag19
aS'jcd48'
p61
aS'jcl18'
p62
aS'jcl38'
p63
aS'jcu84'
p64
aS'jcr87'
p65
aS'up'
p66
ag19
aS'jbl100'
p67
aS'jcu3'
p68
ag9
aS'jbd2'
p69
aS'jbu75'
p70
aS'jcd87'
p71
ag53
aS'jbu18'
p72
aS'jbr96'
p73
aS'down'
p74
aS'left'
p75
aS'jbd32'
p76
aS'jcd47'
p77
aS'jcu82'
p78
aS'jcu14'
p79
aS'jcl54'
p80
aS'jcd19'
p81
aS'jbr50'
p82
aS'down'
p83
aS'jcl42'
p84
aS'jbd40'
p85
aS'down'
p86
aS'down'
p87
a.