(lp0
S'jbr0'
p1
aS'jbd20'
p2
aS'jbu37'
p3
aS'jcl81'
p4
aS'jcu34'
p5
aS'left'
p6
aS'jcl85'
p7
aS'jbr43'
p8
aS'jcl52'
p9
ag6
aS'right'
p10
aS'jbd95'
p11
aS'down'
p12
aS'jbd33'
p13
aS'up'
p14
aS'jcl40'
p15
aS'down'
p16
ag12
aS'jbr62'
p17
aS'jbd80'
p18
aS'jbl35'
p19
aS'right'
p20
aS'jcu71'
p21
aS'jbl9'
p22
aS'jcl56'
p23
aS'jcl54'
p24
aS'jcr40'
p25
aS'jcu17'
p26
aS'jcr21'
p27
aS'jbl25'
p28
aS'jcu30'
p29
aS'jcu91'
p30
aS'right'
p31
aS'jbd59'
p32
aS'jbd33'
p33
aS'jbu92'
p34
aS'jcd32'
p35
aS'left'
p36
aS'up'
p37
aS'jcu12'
p38
aS'jbl44'
p39
ag6
ag12
aS'jcr92'
p40
aS'jbl5'
p41
aS'jbr27'
p42
aS'jbd82'
p43
aS'jcd16'
p44
ag6
aS'jbu38'
p45
aS'jcd79'
p46
aS'jbl25'
p47
aS'right'
p48
aS'jcu91'
p49
aS'jbl57'
p50
aS'left'
p51
aS'up'
p52
ag31
ag12
aS'jcu19'
p53
ag31
aS'down'
p54
aS'jbr96'
p55
ag37
aS'jcu32'
p56
ag37
ag12
aS'jbr27'
p57
aS'jbd82'
p58
ag37
aS'jbd47'
p59
ag37
aS'right'
p60
ag37
aS'jcl8'
p61
aS'up'
p62
aS'jcd57'
p63
aS'jcd19'
p64
ag37
aS'jbr93'
p65
aS'jcr60'
p66
ag37
aS'jcd87'
p67
ag54
aS'jbd52'
p68
aS'jcd83'
p69
aS'down'
p70
ag12
aS'left'
p71
ag12
ag31
aS'jcl83'
p72
ag37
aS'jcu94'
p73
aS'jcl54'
p74
aS'down'
p75
aS'jcd23'
p76
ag12
aS'down'
p77
aS'down'
p78
a.