(lp0
S'jbr0'
p1
aS'jcd48'
p2
aS'left'
p3
aS'jcd48'
p4
aS'jcu34'
p5
aS'jcr88'
p6
aS'jcd68'
p7
aS'jcd44'
p8
aS'right'
p9
aS'jbl7'
p10
aS'up'
p11
aS'jbd95'
p12
ag11
ag3
aS'jcd61'
p13
aS'jbd42'
p14
aS'down'
p15
ag3
aS'jcu61'
p16
ag3
ag11
ag11
aS'down'
p17
aS'jbl13'
p18
aS'right'
p19
aS'jcl6'
p20
aS'down'
p21
aS'jcd99'
p22
aS'jbl54'
p23
aS'jcl79'
p24
aS'right'
p25
aS'right'
p26
aS'jbl99'
p27
aS'jcd4'
p28
aS'jbl87'
p29
ag3
aS'jbl75'
p30
aS'jbl96'
p31
ag21
aS'up'
p32
aS'jbr62'
p33
aS'jbr39'
p34
aS'jbu15'
p35
aS'jcr84'
p36
aS'jbd51'
p37
aS'jcd98'
p38
aS'jcl98'
p39
aS'jcl54'
p40
aS'jbr29'
p41
aS'right'
p42
ag21
ag21
ag9
aS'jbl15'
p43
aS'jbl19'
p44
ag3
aS'jbl33'
p45
aS'jbd74'
p46
aS'jcu20'
p47
aS'jbr39'
p48
aS'down'
p49
aS'down'
p50
aS'jbu60'
p51
aS'jcr80'
p52
ag21
aS'jcr92'
p53
ag26
aS'jbr5'
p54
aS'jcd33'
p55
aS'jbl99'
p56
aS'jcu72'
p57
aS'up'
p58
aS'jbd38'
p59
aS'up'
p60
aS'jbl44'
p61
aS'up'
p62
ag26
aS'jcd67'
p63
aS'jcd54'
p64
ag21
ag15
aS'jbr49'
p65
aS'jbr86'
p66
aS'jbu49'
p67
aS'jcd7'
p68
aS'jcd13'
p69
ag15
aS'jcl13'
p70
ag26
aS'jcd100'
p71
aS'jcu17'
p72
aS'jbr82'
p73
aS'jbd80'
p74
ag21
aS'jbr50'
p75
aS'jcr81'
p76
aS'jbl45'
p77
aS'jcd41'
p78
aS'down'
p79
aS'down'
p80
a.