(lp0
S'jbr0'
p1
aS'jcr71'
p2
aS'jbl82'
p3
aS'jcd48'
p4
aS'left'
p5
aS'jbl81'
p6
aS'up'
p7
aS'jcd0'
p8
ag7
aS'jcd74'
p9
aS'right'
p10
aS'right'
p11
ag7
aS'jcd7'
p12
aS'down'
p13
aS'jbu67'
p14
aS'jbu27'
p15
aS'jbl75'
p16
aS'jcl73'
p17
aS'jcd34'
p18
aS'up'
p19
aS'right'
p20
ag20
aS'jbr100'
p21
ag7
ag5
ag20
aS'jcl98'
p22
aS'jcl54'
p23
aS'jcr8'
p24
aS'right'
p25
aS'jbr75'
p26
aS'jbd96'
p27
ag7
aS'jbl87'
p28
aS'jbd84'
p29
ag5
aS'left'
p30
aS'jbd15'
p31
aS'up'
p32
aS'jbr85'
p33
ag7
aS'jcr89'
p34
ag20
ag20
aS'jbu67'
p35
aS'jcl98'
p36
aS'jcr50'
p37
ag20
aS'jcd52'
p38
aS'jbl20'
p39
aS'jbd37'
p40
aS'jcr80'
p41
aS'jcl31'
p42
aS'up'
p43
ag30
aS'jcl9'
p44
ag5
aS'jbl94'
p45
aS'left'
p46
aS'down'
p47
aS'jbl19'
p48
aS'jbr64'
p49
aS'right'
p50
aS'jcu32'
p51
aS'jcr92'
p52
ag46
aS'jbr27'
p53
aS'jbd75'
p54
aS'jbl99'
p55
aS'jbd47'
p56
ag13
aS'right'
p57
aS'up'
p58
aS'jcu74'
p59
ag43
aS'jbd3'
p60
aS'jcd19'
p61
ag20
ag13
aS'down'
p62
aS'jbl85'
p63
aS'jcd87'
p64
aS'down'
p65
ag5
aS'jbu68'
p66
aS'jbr60'
p67
ag13
aS'jcl55'
p68
aS'jcd47'
p69
aS'jcu17'
p70
aS'jcl83'
p71
ag20
ag7
aS'jbd64'
p72
aS'down'
p73
aS'jbu100'
p74
aS'jbl73'
p75
ag5
aS'down'
p76
a.