(lp0
S'jcd64'
p1
aS'jcd48'
p2
aS'jbu37'
p3
aS'up'
p4
aS'jbd50'
p5
aS'jcr88'
p6
aS'jcd7'
p7
aS'jbr43'
p8
aS'right'
p9
aS'down'
p10
aS'right'
p11
aS'jbu0'
p12
aS'left'
p13
aS'jbr69'
p14
aS'jcu74'
p15
aS'jbd42'
p16
ag4
aS'jbd84'
p17
aS'jbd99'
p18
aS'jcd1'
p19
aS'right'
p20
ag9
ag13
aS'jbl13'
p21
aS'jcd84'
p22
aS'jcl6'
p23
aS'jbu95'
p24
ag9
aS'jbl54'
p25
ag9
aS'right'
p26
aS'jcl44'
p27
aS'jbr56'
p28
aS'jcr8'
p29
ag10
ag10
aS'jbl75'
p30
ag4
aS'down'
p31
ag10
aS'jbl30'
p32
ag4
aS'jbl36'
p33
aS'jbr82'
p34
aS'jbr36'
p35
ag9
aS'jcd48'
p36
aS'jbu37'
p37
aS'jcu68'
p38
aS'jcu34'
p39
aS'jbu45'
p40
aS'jbl5'
p41
aS'jbr43'
p42
aS'jcl44'
p43
ag10
aS'right'
p44
ag13
aS'jcu50'
p45
aS'jbr69'
p46
aS'up'
p47
aS'jbu24'
p48
aS'jcl64'
p49
aS'jbd84'
p50
aS'jbd99'
p51
aS'jbu17'
p52
aS'jcu91'
p53
aS'right'
p54
aS'down'
p55
ag4
ag4
aS'jbd47'
p56
ag10
aS'right'
p57
ag10
ag13
aS'jbr33'
p58
aS'jbd98'
p59
aS'jcr29'
p60
aS'jcd83'
p61
aS'jbr93'
p62
ag9
aS'jbl6'
p63
aS'jcl62'
p64
aS'down'
p65
aS'jcl21'
p66
aS'jcu23'
p67
ag10
aS'jbd32'
p68
aS'jcd69'
p69
aS'jbd20'
p70
aS'jbr4'
p71
aS'jcl83'
p72
aS'jbd48'
p73
aS'jcu94'
p74
aS'jbl2'
p75
aS'down'
p76
aS'jbl56'
p77
aS'jbl13'
p78
aS'jcu5'
p79
aS'jcr10'
p80
a.