(lp0
S'jcd92'
p1
aS'jbu44'
p2
aS'jcl30'
p3
aS'jcd72'
p4
aS'jcu34'
p5
aS'jbd95'
p6
aS'jcl85'
p7
aS'jbr43'
p8
aS'right'
p9
aS'jbl10'
p10
aS'jbl75'
p11
aS'jbl15'
p12
aS'jcu50'
p13
aS'jcl30'
p14
aS'up'
p15
aS'jbd42'
p16
aS'down'
p17
aS'jcu74'
p18
aS'jcr61'
p19
aS'down'
p20
ag9
aS'right'
p21
aS'left'
p22
aS'jbd71'
p23
aS'jbr73'
p24
aS'jcl6'
p25
aS'jbd94'
p26
aS'jbu27'
p27
aS'jbl100'
p28
ag22
aS'right'
p29
aS'jbd7'
p30
aS'jcd7'
p31
aS'jbu86'
p32
aS'jcl71'
p33
aS'jbd84'
p34
aS'jcl73'
p35
aS'jbl28'
p36
aS'right'
p37
aS'up'
p38
aS'jbr62'
p39
aS'jbr39'
p40
aS'jbu4'
p41
aS'jbu58'
p42
aS'jbu10'
p43
aS'left'
p44
aS'jcl98'
p45
aS'jcl54'
p46
aS'jbd78'
p47
aS'jbd12'
p48
aS'jbu4'
p49
aS'jbr30'
p50
aS'jbu27'
p51
aS'jbl54'
p52
ag22
aS'jcr81'
p53
aS'jcd71'
p54
aS'jcl53'
p55
ag22
aS'jbl87'
p56
ag22
aS'jbr54'
p57
aS'up'
p58
aS'down'
p59
aS'jbr1'
p60
ag20
aS'jbr39'
p61
aS'jbr66'
p62
aS'jcl38'
p63
aS'jcu71'
p64
aS'jcl58'
p65
ag22
aS'jbl97'
p66
aS'jbr52'
p67
aS'jcd31'
p68
ag22
aS'jcd57'
p69
aS'jcr16'
p70
aS'jbl96'
p71
ag37
aS'jcu40'
p72
aS'jcl20'
p73
ag20
ag58
ag58
ag22
ag58
aS'jcd20'
p74
ag20
aS'jcd47'
p75
ag20
aS'jbu35'
p76
aS'jcl54'
p77
aS'jcd21'
p78
aS'jbd67'
p79
aS'down'
p80
ag58
ag20
aS'down'
p81
aS'jbr46'
p82
a.