(lp0
S'jbr93'
p1
aS'down'
p2
aS'jbr49'
p3
aS'jcl54'
p4
aS'jcu29'
p5
aS'jcd7'
p6
aS'down'
p7
aS'right'
p8
aS'left'
p9
aS'left'
p10
aS'jcd47'
p11
aS'jbr33'
p12
aS'jbl54'
p13
aS'jcd1'
p14
aS'up'
p15
aS'jcr53'
p16
ag7
aS'jcr69'
p17
aS'jcr48'
p18
aS'jcr31'
p19
ag7
aS'jcd39'
p20
aS'left'
p21
aS'jbl13'
p22
aS'right'
p23
aS'jcu43'
p24
aS'jcd21'
p25
aS'jcl96'
p26
aS'jbl54'
p27
ag8
aS'up'
p28
aS'jcl44'
p29
ag28
aS'jcd24'
p30
aS'jbl87'
p31
aS'jbl28'
p32
aS'jbl75'
p33
aS'jbu34'
p34
aS'down'
p35
aS'up'
p36
aS'jbr62'
p37
aS'jbr84'
p38
ag28
aS'jbu64'
p39
ag8
aS'jbr41'
p40
aS'jcl83'
p41
aS'jcl6'
p42
ag21
aS'right'
p43
ag8
aS'jbr52'
p44
aS'jbd20'
p45
ag8
aS'up'
p46
ag7
aS'jbu35'
p47
aS'jcr85'
p48
ag7
ag28
aS'down'
p49
aS'jcd9'
p50
ag7
ag8
aS'jcu32'
p51
aS'jcr92'
p52
aS'left'
p53
aS'jcu31'
p54
aS'jbl3'
p55
aS'jbl99'
p56
aS'jcd90'
p57
aS'jbd13'
p58
aS'jbd69'
p59
aS'up'
p60
aS'jcr87'
p61
aS'jcu32'
p62
aS'jcu17'
p63
aS'jcd19'
p64
aS'jbl96'
p65
aS'jcl51'
p66
aS'down'
p67
aS'jbl33'
p68
aS'jcd87'
p69
aS'down'
p70
aS'jbr9'
p71
aS'jbu57'
p72
ag67
aS'left'
p73
ag8
aS'jcu54'
p74
aS'jcu17'
p75
ag7
aS'jbl19'
p76
aS'jcu94'
p77
aS'jbd16'
p78
aS'down'
p79
ag28
aS'jbl13'
p80
aS'jcl69'
p81
aS'jcu22'
p82
a.