(lp0
S'right'
p1
aS'jcd48'
p2
aS'jbu37'
p3
aS'down'
p4
aS'jcu43'
p5
aS'jbl33'
p6
aS'jcd29'
p7
aS'up'
p8
aS'right'
p9
aS'jcr20'
p10
aS'right'
p11
aS'jbd95'
p12
aS'jcu50'
p13
aS'jcr78'
p14
aS'up'
p15
aS'jbd42'
p16
aS'jbr82'
p17
aS'jbd84'
p18
ag4
aS'jbl1'
p19
aS'jcd27'
p20
aS'jcr95'
p21
aS'down'
p22
aS'jbl13'
p23
aS'right'
p24
aS'jcu52'
p25
aS'jcr14'
p26
aS'jbd62'
p27
ag4
aS'jcl79'
p28
aS'right'
p29
aS'left'
p30
ag1
aS'jcd4'
p31
aS'jbl87'
p32
aS'jcd99'
p33
aS'jcl52'
p34
aS'left'
p35
aS'jbd93'
p36
aS'jcd63'
p37
ag1
aS'jbd27'
p38
aS'jbl35'
p39
ag8
aS'jbr95'
p40
aS'jbr25'
p41
aS'jcl98'
p42
aS'jcl54'
p43
aS'jcl68'
p44
ag4
aS'jbl56'
p45
aS'jbl25'
p46
ag9
aS'jcl27'
p47
ag4
aS'jcd89'
p48
aS'up'
p49
aS'jbu3'
p50
ag4
aS'left'
p51
ag1
aS'jbu53'
p52
aS'jbr64'
p53
aS'jcd59'
p54
aS'jcr75'
p55
aS'jcr92'
p56
ag51
ag8
aS'jbd82'
p57
aS'jbr58'
p58
ag4
ag15
aS'jbr21'
p59
aS'jbd98'
p60
ag4
aS'up'
p61
aS'jcd57'
p62
aS'jcd19'
p63
aS'jbd6'
p64
aS'jbd43'
p65
aS'jbd70'
p66
aS'jcu57'
p67
aS'jbr76'
p68
aS'jcu59'
p69
aS'jcd7'
p70
aS'jbu57'
p71
aS'jcr18'
p72
ag1
ag51
aS'jbu90'
p73
aS'jcu17'
p74
ag4
aS'jcl54'
p75
ag8
aS'jbl41'
p76
aS'jcu88'
p77
aS'jcl88'
p78
aS'jcr11'
p79
ag30
ag8
a.