(lp0
S'jbr0'
p1
aS'jbr22'
p2
aS'jbu37'
p3
aS'jcd48'
p4
aS'jcd87'
p5
aS'jbr28'
p6
aS'jcl85'
p7
aS'jbr43'
p8
aS'jcu55'
p9
aS'jcu19'
p10
aS'down'
p11
aS'jbd95'
p12
ag11
aS'jcd96'
p13
aS'jcd57'
p14
aS'jbd42'
p15
aS'jbl55'
p16
aS'jcl13'
p17
aS'up'
p18
aS'jcu52'
p19
aS'jcr35'
p20
aS'jbl92'
p21
aS'down'
p22
aS'jbl70'
p23
aS'right'
p24
aS'jbl92'
p25
aS'jbu95'
p26
aS'jbr38'
p27
aS'left'
p28
aS'jcu4'
p29
aS'jbl65'
p30
aS'jbl62'
p31
ag11
aS'jcd4'
p32
aS'jbu24'
p33
aS'jbd84'
p34
ag28
ag28
aS'jcd64'
p35
aS'jbd36'
p36
aS'jcd61'
p37
ag28
aS'jbl35'
p38
aS'right'
p39
aS'jcu32'
p40
ag18
ag28
aS'jbr26'
p41
aS'jcr40'
p42
ag28
aS'down'
p43
aS'right'
p44
ag39
aS'jcu91'
p45
aS'up'
p46
aS'jcl19'
p47
aS'up'
p48
aS'down'
p49
ag11
aS'left'
p50
ag28
aS'jcl89'
p51
aS'jbr64'
p52
aS'right'
p53
ag11
aS'jbl86'
p54
ag11
aS'jbr27'
p55
aS'jbd82'
p56
aS'jbu99'
p57
ag18
ag44
ag18
aS'jcl37'
p58
aS'jcr87'
p59
ag46
ag44
aS'jcd19'
p60
aS'jbd49'
p61
ag18
ag28
aS'jbr49'
p62
ag11
aS'down'
p63
aS'jbu58'
p64
ag18
aS'jcr75'
p65
aS'left'
p66
ag50
aS'jbd39'
p67
aS'jcu17'
p68
ag28
aS'jbu34'
p69
aS'jcu94'
p70
aS'jbr50'
p71
ag28
ag44
aS'jbl13'
p72
ag43
aS'down'
p73
a.