(lp0
S'jbr0'
p1
aS'jbu11'
p2
aS'jbd4'
p3
aS'jcd48'
p4
aS'jcu34'
p5
aS'jcr88'
p6
aS'jcl85'
p7
aS'jcu36'
p8
aS'left'
p9
aS'jcr20'
p10
ag9
aS'jbd95'
p11
aS'jcr19'
p12
aS'jbr69'
p13
aS'down'
p14
aS'jcl88'
p15
aS'jcr97'
p16
ag14
aS'jbd99'
p17
aS'jbl27'
p18
aS'jcr25'
p19
aS'jcr95'
p20
aS'jbu72'
p21
aS'jbl28'
p22
aS'jcu79'
p23
ag14
aS'jbl97'
p24
aS'jbr35'
p25
aS'jbl11'
p26
aS'jbr100'
p27
aS'right'
p28
aS'jcl44'
p29
aS'jcd7'
p30
aS'jbd43'
p31
aS'jbd22'
p32
aS'jbd84'
p33
aS'jbl75'
p34
aS'jcd51'
p35
aS'down'
p36
aS'up'
p37
aS'jbr62'
p38
aS'jcd4'
p39
aS'jbl35'
p40
aS'jbu60'
p41
aS'up'
p42
aS'jcu68'
p43
aS'jbr39'
p44
aS'jbd57'
p45
ag14
aS'jcl19'
p46
aS'jcu38'
p47
aS'jcr27'
p48
aS'jcr96'
p49
aS'right'
p50
aS'up'
p51
ag50
aS'up'
p52
ag14
aS'down'
p53
ag42
aS'jbu1'
p54
ag42
aS'jbr64'
p55
aS'right'
p56
ag50
aS'jbd24'
p57
ag9
aS'jbu41'
p58
aS'jcl4'
p59
aS'jbl99'
p60
aS'jbu58'
p61
aS'jcd21'
p62
aS'jcd68'
p63
aS'up'
p64
aS'jcr87'
p65
aS'jcu45'
p66
aS'jcd57'
p67
aS'jcl83'
p68
aS'jcd72'
p69
aS'jbr93'
p70
aS'jcr95'
p71
aS'jbu43'
p72
aS'jcd87'
p73
ag50
aS'jbd8'
p74
aS'jcd49'
p75
aS'jbu62'
p76
ag42
aS'jcl2'
p77
aS'jbr15'
p78
aS'jcu35'
p79
aS'jbl1'
p80
ag9
ag42
aS'jcr10'
p81
ag42
aS'jbr19'
p82
aS'jcu98'
p83
aS'jbr27'
p84
aS'down'
p85
a.