(lp0
S'jbr0'
p1
aS'jcd48'
p2
aS'jbu37'
p3
aS'jbd18'
p4
aS'jcu34'
p5
aS'jbu22'
p6
aS'jcl85'
p7
aS'jbr61'
p8
aS'right'
p9
aS'up'
p10
aS'jbd15'
p11
aS'jbd95'
p12
ag10
aS'jbr69'
p13
aS'jbd5'
p14
aS'jbd42'
p15
aS'jcl52'
p16
aS'down'
p17
aS'jcd53'
p18
aS'right'
p19
ag19
aS'right'
p20
aS'jbl90'
p21
aS'jbu50'
p22
aS'jbu41'
p23
aS'jcd30'
p24
aS'jbu95'
p25
aS'jbu27'
p26
aS'jbl54'
p27
ag17
aS'right'
p28
aS'jcl38'
p29
aS'jbd1'
p30
aS'jcd99'
p31
aS'jbl36'
p32
aS'jbd84'
p33
aS'jbl75'
p34
aS'jcu23'
p35
ag10
aS'jcr60'
p36
ag17
aS'jbr39'
p37
ag19
aS'jbu38'
p38
aS'down'
p39
aS'jbd81'
p40
ag19
aS'jcl54'
p41
ag17
aS'jcd67'
p42
aS'down'
p43
aS'jbl25'
p44
ag17
ag19
aS'up'
p45
ag19
aS'up'
p46
aS'down'
p47
aS'down'
p48
aS'jcl56'
p49
aS'jcl80'
p50
ag48
aS'jbr64'
p51
aS'right'
p52
aS'jcu55'
p53
aS'jcd35'
p54
aS'jbu87'
p55
aS'jbr51'
p56
aS'jbd93'
p57
aS'jcr31'
p58
ag19
aS'jcu19'
p59
aS'jbd14'
p60
aS'jbu18'
p61
aS'jcd23'
p62
aS'jbr28'
p63
aS'jcd57'
p64
aS'jcd28'
p65
ag17
aS'jcr52'
p66
ag47
aS'jcr45'
p67
aS'jcd87'
p68
aS'left'
p69
aS'jcd7'
p70
aS'jbd44'
p71
aS'jbu90'
p72
ag19
aS'left'
p73
aS'jcd47'
p74
aS'jbl47'
p75
aS'jcl83'
p76
ag19
aS'jcu82'
p77
aS'jbr50'
p78
aS'jbd77'
p79
aS'jcl42'
p80
aS'jcl89'
p81
ag10
ag17
a.