(lp0
S'jcd9'
p1
aS'down'
p2
aS'jbu37'
p3
aS'jbl27'
p4
aS'jbl0'
p5
aS'right'
p6
aS'jbu60'
p7
aS'jbl32'
p8
aS'right'
p9
aS'jcr20'
p10
aS'jcl100'
p11
aS'jbd95'
p12
aS'jcu50'
p13
aS'jbr25'
p14
aS'jbl16'
p15
ag2
aS'right'
p16
aS'jbd58'
p17
aS'jcd52'
p18
aS'jcl28'
p19
aS'jcd28'
p20
aS'jbl58'
p21
aS'left'
p22
aS'jbl18'
p23
aS'jbu89'
p24
aS'jcr84'
p25
aS'jbd14'
p26
aS'jcd7'
p27
aS'jcr85'
p28
aS'jbu29'
p29
aS'jbd84'
p30
aS'jbl75'
p31
aS'left'
p32
ag2
aS'up'
p33
aS'jbr62'
p34
aS'jbr39'
p35
aS'up'
p36
aS'jcl20'
p37
aS'jcu71'
p38
aS'left'
p39
aS'jcl98'
p40
aS'jcl54'
p41
aS'jbu98'
p42
aS'jcd78'
p43
aS'down'
p44
aS'jcl93'
p45
aS'right'
p46
aS'jcu71'
p47
aS'jcu11'
p48
ag32
aS'jbd17'
p49
ag22
aS'jbu56'
p50
aS'left'
p51
ag2
aS'jbd12'
p52
aS'jbu97'
p53
aS'right'
p54
aS'jcu32'
p55
aS'jcd41'
p56
ag36
ag22
ag2
aS'jcu32'
p57
aS'jcr92'
p58
aS'left'
p59
aS'jbr27'
p60
aS'jbd82'
p61
aS'jcr4'
p62
aS'jbd47'
p63
ag22
aS'right'
p64
aS'up'
p65
aS'jcr87'
p66
aS'up'
p67
aS'jcd68'
p68
aS'jbu65'
p69
aS'jbd28'
p70
aS'jbr93'
p71
aS'down'
p72
aS'jbu52'
p73
aS'jcl96'
p74
ag2
aS'jcl19'
p75
aS'jbl100'
p76
ag22
aS'left'
p77
ag36
aS'jbl86'
p78
ag36
aS'jcl83'
p79
aS'jcl54'
p80
ag6
aS'jbr50'
p81
aS'jcu27'
p82
aS'jcl42'
p83
aS'jbl13'
p84
aS'jbr49'
p85
aS'jcl5'
p86
a.